
BathroomController.elf:     file format elf32-avr

Sections:
Idx Name          Size      VMA       LMA       File off  Algn
  0 .data         00000210  00800100  00002994  00002a48  2**0
                  CONTENTS, ALLOC, LOAD, DATA
  1 .text         00002994  00000000  00000000  000000b4  2**1
                  CONTENTS, ALLOC, LOAD, READONLY, CODE
  2 .bss          0000012b  00800310  00800310  00002c58  2**0
                  ALLOC
  3 .eeprom       0000000e  00810000  00810000  00002c58  2**0
                  CONTENTS, ALLOC, LOAD, DATA
  4 .comment      0000005c  00000000  00000000  00002c66  2**0
                  CONTENTS, READONLY
  5 .note.gnu.avr.deviceinfo 00000040  00000000  00000000  00002cc4  2**2
                  CONTENTS, READONLY
  6 .debug_aranges 00000040  00000000  00000000  00002d08  2**3
                  CONTENTS, READONLY, DEBUGGING
  7 .debug_info   0000074d  00000000  00000000  00002d48  2**0
                  CONTENTS, READONLY, DEBUGGING
  8 .debug_abbrev 000005ca  00000000  00000000  00003495  2**0
                  CONTENTS, READONLY, DEBUGGING
  9 .debug_line   00000263  00000000  00000000  00003a5f  2**0
                  CONTENTS, READONLY, DEBUGGING
 10 .debug_str    00000208  00000000  00000000  00003cc2  2**0
                  CONTENTS, READONLY, DEBUGGING

Disassembly of section .text:

00000000 <__vectors>:
       0:	0c 94 3d 05 	jmp	0xa7a	; 0xa7a <__ctors_end>
       4:	0c 94 5a 05 	jmp	0xab4	; 0xab4 <__bad_interrupt>
       8:	0c 94 5a 05 	jmp	0xab4	; 0xab4 <__bad_interrupt>
       c:	0c 94 d8 0e 	jmp	0x1db0	; 0x1db0 <__vector_3>
      10:	0c 94 b4 0e 	jmp	0x1d68	; 0x1d68 <__vector_4>
      14:	0c 94 90 0e 	jmp	0x1d20	; 0x1d20 <__vector_5>
      18:	0c 94 5a 05 	jmp	0xab4	; 0xab4 <__bad_interrupt>
      1c:	0c 94 5a 05 	jmp	0xab4	; 0xab4 <__bad_interrupt>
      20:	0c 94 5a 05 	jmp	0xab4	; 0xab4 <__bad_interrupt>
      24:	0c 94 5a 05 	jmp	0xab4	; 0xab4 <__bad_interrupt>
      28:	0c 94 5a 05 	jmp	0xab4	; 0xab4 <__bad_interrupt>
      2c:	0c 94 fc 0e 	jmp	0x1df8	; 0x1df8 <__vector_11>
      30:	0c 94 5a 05 	jmp	0xab4	; 0xab4 <__bad_interrupt>
      34:	0c 94 5a 05 	jmp	0xab4	; 0xab4 <__bad_interrupt>
      38:	0c 94 5a 05 	jmp	0xab4	; 0xab4 <__bad_interrupt>
      3c:	0c 94 5a 05 	jmp	0xab4	; 0xab4 <__bad_interrupt>
      40:	0c 94 5a 05 	jmp	0xab4	; 0xab4 <__bad_interrupt>
      44:	0c 94 5a 05 	jmp	0xab4	; 0xab4 <__bad_interrupt>
      48:	0c 94 56 10 	jmp	0x20ac	; 0x20ac <__vector_18>
      4c:	0c 94 81 10 	jmp	0x2102	; 0x2102 <__vector_19>
      50:	0c 94 5a 05 	jmp	0xab4	; 0xab4 <__bad_interrupt>
      54:	0c 94 5a 05 	jmp	0xab4	; 0xab4 <__bad_interrupt>
      58:	0c 94 5a 05 	jmp	0xab4	; 0xab4 <__bad_interrupt>
      5c:	0c 94 5a 05 	jmp	0xab4	; 0xab4 <__bad_interrupt>
      60:	0c 94 5a 05 	jmp	0xab4	; 0xab4 <__bad_interrupt>
      64:	0c 94 5a 05 	jmp	0xab4	; 0xab4 <__bad_interrupt>
      68:	87 0f       	add	r24, r23
      6a:	89 0f       	add	r24, r25
      6c:	90 0f       	add	r25, r16
      6e:	92 0f       	add	r25, r18
      70:	94 0f       	add	r25, r20
      72:	96 0f       	add	r25, r22
      74:	98 0f       	add	r25, r24
      76:	9a 0f       	add	r25, r26

00000078 <__trampolines_end>:
      78:	57 65       	ori	r21, 0x57	; 87
      7a:	6c 63       	ori	r22, 0x3C	; 60
      7c:	6f 6d       	ori	r22, 0xDF	; 223
      7e:	65 20       	and	r6, r5
      80:	74 6f       	ori	r23, 0xF4	; 244
      82:	20 42       	sbci	r18, 0x20	; 32
      84:	61 74       	andi	r22, 0x41	; 65
      86:	68 72       	andi	r22, 0x28	; 40
      88:	6f 6f       	ori	r22, 0xFF	; 255
      8a:	6d 20       	and	r6, r13
      8c:	43 6f       	ori	r20, 0xF3	; 243
      8e:	6e 74       	andi	r22, 0x4E	; 78
      90:	72 6f       	ori	r23, 0xF2	; 242
      92:	6c 6c       	ori	r22, 0xCC	; 204
      94:	65 72       	andi	r22, 0x25	; 37
      96:	20 4d       	sbci	r18, 0xD0	; 208
      98:	43 55       	subi	r20, 0x53	; 83
      9a:	2c 20       	and	r2, r12
      9c:	63 6f       	ori	r22, 0xF3	; 243
      9e:	6d 6d       	ori	r22, 0xDD	; 221
      a0:	61 6e       	ori	r22, 0xE1	; 225
      a2:	64 73       	andi	r22, 0x34	; 52
      a4:	20 3a       	cpi	r18, 0xA0	; 160
      a6:	20 0a       	sbc	r2, r16
      a8:	20 48       	sbci	r18, 0x80	; 128
      aa:	45 4c       	sbci	r20, 0xC5	; 197
      ac:	50 20       	and	r5, r0
      ae:	20 20       	and	r2, r0
      b0:	20 20       	and	r2, r0
      b2:	20 20       	and	r2, r0
      b4:	20 20       	and	r2, r0
      b6:	20 20       	and	r2, r0
      b8:	20 20       	and	r2, r0
      ba:	20 20       	and	r2, r0
      bc:	20 20       	and	r2, r0
      be:	20 20       	and	r2, r0
      c0:	20 20       	and	r2, r0
      c2:	3a 20       	and	r3, r10
      c4:	48 65       	ori	r20, 0x58	; 88
      c6:	6c 70       	andi	r22, 0x0C	; 12
      c8:	20 67       	ori	r18, 0x70	; 112
      ca:	75 69       	ori	r23, 0x95	; 149
      cc:	64 65       	ori	r22, 0x54	; 84
      ce:	2c 20       	and	r2, r12
      d0:	77 68       	ori	r23, 0x87	; 135
      d2:	69 63       	ori	r22, 0x39	; 57
      d4:	68 20       	and	r6, r8
      d6:	79 6f       	ori	r23, 0xF9	; 249
      d8:	75 20       	and	r7, r5
      da:	61 72       	andi	r22, 0x21	; 33
      dc:	65 20       	and	r6, r5
      de:	72 65       	ori	r23, 0x52	; 82
      e0:	61 64       	ori	r22, 0x41	; 65
      e2:	69 6e       	ori	r22, 0xE9	; 233
      e4:	67 20       	and	r6, r7
      e6:	6e 6f       	ori	r22, 0xFE	; 254
      e8:	77 0a       	sbc	r7, r23
      ea:	20 56       	subi	r18, 0x60	; 96
      ec:	45 52       	subi	r20, 0x25	; 37
      ee:	53 49       	sbci	r21, 0x93	; 147
      f0:	4f 4e       	sbci	r20, 0xEF	; 239
      f2:	20 20       	and	r2, r0
      f4:	20 20       	and	r2, r0
      f6:	20 20       	and	r2, r0
      f8:	20 20       	and	r2, r0
      fa:	20 20       	and	r2, r0
      fc:	20 20       	and	r2, r0
      fe:	20 20       	and	r2, r0
     100:	20 20       	and	r2, r0
     102:	20 20       	and	r2, r0
     104:	3a 20       	and	r3, r10
     106:	76 65       	ori	r23, 0x56	; 86
     108:	72 73       	andi	r23, 0x32	; 50
     10a:	69 6f       	ori	r22, 0xF9	; 249
     10c:	6e 20       	and	r6, r14
     10e:	6f 66       	ori	r22, 0x6F	; 111
     110:	20 74       	andi	r18, 0x40	; 64
     112:	68 65       	ori	r22, 0x58	; 88
     114:	20 73       	andi	r18, 0x30	; 48
     116:	6f 66       	ori	r22, 0x6F	; 111
     118:	74 77       	andi	r23, 0x74	; 116
     11a:	61 72       	andi	r22, 0x21	; 33
     11c:	65 0a       	sbc	r6, r21
     11e:	20 54       	subi	r18, 0x40	; 64
     120:	20 20       	and	r2, r0
     122:	20 20       	and	r2, r0
     124:	20 20       	and	r2, r0
     126:	20 20       	and	r2, r0
     128:	20 20       	and	r2, r0
     12a:	20 20       	and	r2, r0
     12c:	20 20       	and	r2, r0
     12e:	20 20       	and	r2, r0
     130:	20 20       	and	r2, r0
     132:	20 20       	and	r2, r0
     134:	20 20       	and	r2, r0
     136:	20 20       	and	r2, r0
     138:	3a 20       	and	r3, r10
     13a:	63 75       	andi	r22, 0x53	; 83
     13c:	72 72       	andi	r23, 0x22	; 34
     13e:	65 6e       	ori	r22, 0xE5	; 229
     140:	74 20       	and	r7, r4
     142:	74 65       	ori	r23, 0x54	; 84
     144:	6d 70       	andi	r22, 0x0D	; 13
     146:	65 72       	andi	r22, 0x25	; 37
     148:	61 74       	andi	r22, 0x41	; 65
     14a:	75 72       	andi	r23, 0x25	; 37
     14c:	65 0a       	sbc	r6, r21
     14e:	20 48       	sbci	r18, 0x80	; 128
     150:	20 20       	and	r2, r0
     152:	20 20       	and	r2, r0
     154:	20 20       	and	r2, r0
     156:	20 20       	and	r2, r0
     158:	20 20       	and	r2, r0
     15a:	20 20       	and	r2, r0
     15c:	20 20       	and	r2, r0
     15e:	20 20       	and	r2, r0
     160:	20 20       	and	r2, r0
     162:	20 20       	and	r2, r0
     164:	20 20       	and	r2, r0
     166:	20 20       	and	r2, r0
     168:	3a 20       	and	r3, r10
     16a:	63 75       	andi	r22, 0x53	; 83
     16c:	72 72       	andi	r23, 0x22	; 34
     16e:	65 6e       	ori	r22, 0xE5	; 229
     170:	74 20       	and	r7, r4
     172:	68 75       	andi	r22, 0x58	; 88
     174:	6d 69       	ori	r22, 0x9D	; 157
     176:	64 69       	ori	r22, 0x94	; 148
     178:	74 79       	andi	r23, 0x94	; 148
     17a:	0a 20       	and	r0, r10
     17c:	55 50       	subi	r21, 0x05	; 5
     17e:	54 49       	sbci	r21, 0x94	; 148
     180:	4d 45       	sbci	r20, 0x5D	; 93
     182:	20 20       	and	r2, r0
     184:	20 20       	and	r2, r0
     186:	20 20       	and	r2, r0
     188:	20 20       	and	r2, r0
     18a:	20 20       	and	r2, r0
     18c:	20 20       	and	r2, r0
     18e:	20 20       	and	r2, r0
     190:	20 20       	and	r2, r0
     192:	20 20       	and	r2, r0
     194:	20 3a       	cpi	r18, 0xA0	; 160
     196:	20 64       	ori	r18, 0x40	; 64
     198:	61 79       	andi	r22, 0x91	; 145
     19a:	73 20       	and	r7, r3
     19c:	61 6e       	ori	r22, 0xE1	; 225
     19e:	64 20       	and	r6, r4
     1a0:	68 6f       	ori	r22, 0xF8	; 248
     1a2:	75 72       	andi	r23, 0x25	; 37
     1a4:	73 20       	and	r7, r3
     1a6:	6f 66       	ori	r22, 0x6F	; 111
     1a8:	20 77       	andi	r18, 0x70	; 112
     1aa:	6f 72       	andi	r22, 0x2F	; 47
     1ac:	6b 69       	ori	r22, 0x9B	; 155
     1ae:	6e 67       	ori	r22, 0x7E	; 126
     1b0:	20 74       	andi	r18, 0x40	; 64
     1b2:	69 6d       	ori	r22, 0xD9	; 217
     1b4:	65 20       	and	r6, r5
     1b6:	73 69       	ori	r23, 0x93	; 147
     1b8:	6e 63       	ori	r22, 0x3E	; 62
     1ba:	65 20       	and	r6, r5
     1bc:	6c 61       	ori	r22, 0x1C	; 28
     1be:	73 74       	andi	r23, 0x43	; 67
     1c0:	20 73       	andi	r18, 0x30	; 48
     1c2:	74 61       	ori	r23, 0x14	; 20
     1c4:	72 74       	andi	r23, 0x42	; 66
     1c6:	0a 20       	and	r0, r10
     1c8:	52 45       	sbci	r21, 0x52	; 82
     1ca:	53 54       	subi	r21, 0x43	; 67
     1cc:	41 52       	subi	r20, 0x21	; 33
     1ce:	54 20       	and	r5, r4
     1d0:	6f 72       	andi	r22, 0x2F	; 47
     1d2:	20 52       	subi	r18, 0x20	; 32
     1d4:	45 53       	subi	r20, 0x35	; 53
     1d6:	45 54       	subi	r20, 0x45	; 69
     1d8:	20 20       	and	r2, r0
     1da:	20 20       	and	r2, r0
     1dc:	20 20       	and	r2, r0
     1de:	20 20       	and	r2, r0
     1e0:	20 3a       	cpi	r18, 0xA0	; 160
     1e2:	20 63       	ori	r18, 0x30	; 48
     1e4:	6f 6d       	ori	r22, 0xDF	; 223
     1e6:	6d 61       	ori	r22, 0x1D	; 29
     1e8:	6e 64       	ori	r22, 0x4E	; 78
     1ea:	20 74       	andi	r18, 0x40	; 64
     1ec:	6f 20       	and	r6, r15
     1ee:	72 65       	ori	r23, 0x52	; 82
     1f0:	73 74       	andi	r23, 0x43	; 67
     1f2:	61 72       	andi	r22, 0x21	; 33
     1f4:	74 20       	and	r7, r4
     1f6:	4d 43       	sbci	r20, 0x3D	; 61
     1f8:	55 20       	and	r5, r5
     1fa:	0a 20       	and	r0, r10
     1fc:	42 4f       	sbci	r20, 0xF2	; 242
     1fe:	4f 54       	subi	r20, 0x4F	; 79
     200:	4c 4f       	sbci	r20, 0xFC	; 252
     202:	41 44       	sbci	r20, 0x41	; 65
     204:	45 52       	subi	r20, 0x25	; 37
     206:	20 20       	and	r2, r0
     208:	20 20       	and	r2, r0
     20a:	20 20       	and	r2, r0
     20c:	20 20       	and	r2, r0
     20e:	20 20       	and	r2, r0
     210:	20 20       	and	r2, r0
     212:	20 20       	and	r2, r0
     214:	20 3a       	cpi	r18, 0xA0	; 160
     216:	20 72       	andi	r18, 0x20	; 32
     218:	75 6e       	ori	r23, 0xE5	; 229
     21a:	20 62       	ori	r18, 0x20	; 32
     21c:	6f 6f       	ori	r22, 0xFF	; 255
     21e:	74 6c       	ori	r23, 0xC4	; 196
     220:	6f 61       	ori	r22, 0x1F	; 31
     222:	64 65       	ori	r22, 0x54	; 84
     224:	72 20       	and	r7, r2
     226:	74 6f       	ori	r23, 0xF4	; 244
     228:	20 75       	andi	r18, 0x50	; 80
     22a:	70 67       	ori	r23, 0x70	; 112
     22c:	72 61       	ori	r23, 0x12	; 18
     22e:	64 65       	ori	r22, 0x54	; 84
     230:	20 73       	andi	r18, 0x30	; 48
     232:	6f 66       	ori	r22, 0x6F	; 111
     234:	74 77       	andi	r23, 0x74	; 116
     236:	61 72       	andi	r22, 0x21	; 33
     238:	65 20       	and	r6, r5
     23a:	0a 20       	and	r0, r10
     23c:	54 45       	sbci	r21, 0x54	; 84
     23e:	53 54       	subi	r21, 0x43	; 67
     240:	20 20       	and	r2, r0
     242:	20 20       	and	r2, r0
     244:	20 20       	and	r2, r0
     246:	20 20       	and	r2, r0
     248:	20 20       	and	r2, r0
     24a:	20 20       	and	r2, r0
     24c:	20 20       	and	r2, r0
     24e:	20 20       	and	r2, r0
     250:	20 20       	and	r2, r0
     252:	20 20       	and	r2, r0
     254:	20 3a       	cpi	r18, 0xA0	; 160
     256:	20 74       	andi	r18, 0x40	; 64
     258:	65 73       	andi	r22, 0x35	; 53
     25a:	74 20       	and	r7, r4
     25c:	63 6f       	ori	r22, 0xF3	; 243
     25e:	6e 74       	andi	r22, 0x4E	; 78
     260:	72 6f       	ori	r23, 0xF2	; 242
     262:	6c 6c       	ori	r22, 0xCC	; 204
     264:	65 72       	andi	r22, 0x25	; 37
     266:	20 0a       	sbc	r2, r16
     268:	20 50       	subi	r18, 0x00	; 0
     26a:	41 52       	subi	r20, 0x21	; 33
     26c:	41 4d       	sbci	r20, 0xD1	; 209
     26e:	53 20       	and	r5, r3
     270:	20 20       	and	r2, r0
     272:	20 20       	and	r2, r0
     274:	20 20       	and	r2, r0
     276:	20 20       	and	r2, r0
     278:	20 20       	and	r2, r0
     27a:	20 20       	and	r2, r0
     27c:	20 20       	and	r2, r0
     27e:	20 20       	and	r2, r0
     280:	20 20       	and	r2, r0
     282:	3a 20       	and	r3, r10
     284:	70 72       	andi	r23, 0x20	; 32
     286:	69 6e       	ori	r22, 0xE9	; 233
     288:	74 20       	and	r7, r4
     28a:	70 61       	ori	r23, 0x10	; 16
     28c:	72 61       	ori	r23, 0x12	; 18
     28e:	6d 65       	ori	r22, 0x5D	; 93
     290:	74 65       	ori	r23, 0x54	; 84
     292:	72 73       	andi	r23, 0x32	; 50
     294:	20 0a       	sbc	r2, r16
     296:	20 48       	sbci	r18, 0x80	; 128
     298:	2d 56       	subi	r18, 0x6D	; 109
     29a:	45 4e       	sbci	r20, 0xE5	; 229
     29c:	54 2d       	mov	r21, r4
     29e:	4f 4e       	sbci	r20, 0xEF	; 239
     2a0:	3d 38       	cpi	r19, 0x8D	; 141
     2a2:	30 20       	and	r3, r0
     2a4:	20 20       	and	r2, r0
     2a6:	20 20       	and	r2, r0
     2a8:	20 20       	and	r2, r0
     2aa:	20 20       	and	r2, r0
     2ac:	20 20       	and	r2, r0
     2ae:	20 20       	and	r2, r0
     2b0:	3a 20       	and	r3, r10
     2b2:	73 65       	ori	r23, 0x53	; 83
     2b4:	74 20       	and	r7, r4
     2b6:	68 75       	andi	r22, 0x58	; 88
     2b8:	6d 69       	ori	r22, 0x9D	; 157
     2ba:	64 69       	ori	r22, 0x94	; 148
     2bc:	74 79       	andi	r23, 0x94	; 148
     2be:	20 77       	andi	r18, 0x70	; 112
     2c0:	68 65       	ori	r22, 0x58	; 88
     2c2:	6e 20       	and	r6, r14
     2c4:	76 65       	ori	r23, 0x56	; 86
     2c6:	6e 74       	andi	r22, 0x4E	; 78
     2c8:	69 6c       	ori	r22, 0xC9	; 201
     2ca:	61 74       	andi	r22, 0x41	; 65
     2cc:	69 6f       	ori	r22, 0xF9	; 249
     2ce:	6e 20       	and	r6, r14
     2d0:	69 73       	andi	r22, 0x39	; 57
     2d2:	20 73       	andi	r18, 0x30	; 48
     2d4:	74 61       	ori	r23, 0x14	; 20
     2d6:	72 74       	andi	r23, 0x42	; 66
     2d8:	65 64       	ori	r22, 0x45	; 69
     2da:	2c 20       	and	r2, r12
     2dc:	38 30       	cpi	r19, 0x08	; 8
     2de:	25 20       	and	r2, r5
     2e0:	62 79       	andi	r22, 0x92	; 146
     2e2:	20 64       	ori	r18, 0x40	; 64
     2e4:	65 66       	ori	r22, 0x65	; 101
     2e6:	61 75       	andi	r22, 0x51	; 81
     2e8:	6c 74       	andi	r22, 0x4C	; 76
     2ea:	2c 20       	and	r2, r12
     2ec:	6d 61       	ori	r22, 0x1D	; 29
     2ee:	78 20       	and	r7, r8
     2f0:	31 30       	cpi	r19, 0x01	; 1
     2f2:	30 25       	eor	r19, r0
     2f4:	0a 20       	and	r0, r10
     2f6:	48 2d       	mov	r20, r8
     2f8:	56 45       	sbci	r21, 0x56	; 86
     2fa:	4e 54       	subi	r20, 0x4E	; 78
     2fc:	2d 4f       	sbci	r18, 0xFD	; 253
     2fe:	46 46       	sbci	r20, 0x66	; 102
     300:	3d 37       	cpi	r19, 0x7D	; 125
     302:	35 20       	and	r3, r5
     304:	20 20       	and	r2, r0
     306:	20 20       	and	r2, r0
     308:	20 20       	and	r2, r0
     30a:	20 20       	and	r2, r0
     30c:	20 20       	and	r2, r0
     30e:	20 3a       	cpi	r18, 0xA0	; 160
     310:	20 73       	andi	r18, 0x30	; 48
     312:	65 74       	andi	r22, 0x45	; 69
     314:	20 68       	ori	r18, 0x80	; 128
     316:	75 6d       	ori	r23, 0xD5	; 213
     318:	69 64       	ori	r22, 0x49	; 73
     31a:	69 74       	andi	r22, 0x49	; 73
     31c:	79 20       	and	r7, r9
     31e:	77 68       	ori	r23, 0x87	; 135
     320:	65 6e       	ori	r22, 0xE5	; 229
     322:	20 76       	andi	r18, 0x60	; 96
     324:	65 6e       	ori	r22, 0xE5	; 229
     326:	74 69       	ori	r23, 0x94	; 148
     328:	6c 61       	ori	r22, 0x1C	; 28
     32a:	74 69       	ori	r23, 0x94	; 148
     32c:	6f 6e       	ori	r22, 0xEF	; 239
     32e:	20 69       	ori	r18, 0x90	; 144
     330:	73 20       	and	r7, r3
     332:	73 74       	andi	r23, 0x43	; 67
     334:	6f 70       	andi	r22, 0x0F	; 15
     336:	70 65       	ori	r23, 0x50	; 80
     338:	64 2c       	mov	r6, r4
     33a:	20 37       	cpi	r18, 0x70	; 112
     33c:	35 25       	eor	r19, r5
     33e:	20 62       	ori	r18, 0x20	; 32
     340:	79 20       	and	r7, r9
     342:	64 65       	ori	r22, 0x54	; 84
     344:	66 61       	ori	r22, 0x16	; 22
     346:	75 6c       	ori	r23, 0xC5	; 197
     348:	74 0a       	sbc	r7, r20
     34a:	20 56       	subi	r18, 0x60	; 96
     34c:	45 4e       	sbci	r20, 0xE5	; 229
     34e:	54 2d       	mov	r21, r4
     350:	45 4e       	sbci	r20, 0xE5	; 229
     352:	41 42       	sbci	r20, 0x21	; 33
     354:	4c 45       	sbci	r20, 0x5C	; 92
     356:	44 3d       	cpi	r20, 0xD4	; 212
     358:	31 20       	and	r3, r1
     35a:	20 20       	and	r2, r0
     35c:	20 20       	and	r2, r0
     35e:	20 20       	and	r2, r0
     360:	20 20       	and	r2, r0
     362:	20 20       	and	r2, r0
     364:	3a 20       	and	r3, r10
     366:	65 6e       	ori	r22, 0xE5	; 229
     368:	61 62       	ori	r22, 0x21	; 33
     36a:	6c 65       	ori	r22, 0x5C	; 92
     36c:	20 76       	andi	r18, 0x60	; 96
     36e:	65 6e       	ori	r22, 0xE5	; 229
     370:	74 69       	ori	r23, 0x94	; 148
     372:	6c 61       	ori	r22, 0x1C	; 28
     374:	74 69       	ori	r23, 0x94	; 148
     376:	6f 6e       	ori	r22, 0xEF	; 239
     378:	2c 20       	and	r2, r12
     37a:	65 6e       	ori	r22, 0xE5	; 229
     37c:	61 62       	ori	r22, 0x21	; 33
     37e:	6c 65       	ori	r22, 0x5C	; 92
     380:	64 20       	and	r6, r4
     382:	31 2c       	mov	r3, r1
     384:	20 64       	ori	r18, 0x40	; 64
     386:	69 73       	andi	r22, 0x39	; 57
     388:	61 62       	ori	r22, 0x21	; 33
     38a:	6c 65       	ori	r22, 0x5C	; 92
     38c:	64 20       	and	r6, r4
     38e:	30 20       	and	r3, r0
     390:	2e 44       	sbci	r18, 0x4E	; 78
     392:	65 66       	ori	r22, 0x65	; 101
     394:	61 75       	andi	r22, 0x51	; 81
     396:	6c 74       	andi	r22, 0x4C	; 76
     398:	20 69       	ori	r18, 0x90	; 144
     39a:	73 20       	and	r7, r3
     39c:	31 0a       	sbc	r3, r17
     39e:	20 56       	subi	r18, 0x60	; 96
     3a0:	45 4e       	sbci	r20, 0xE5	; 229
     3a2:	54 2d       	mov	r21, r4
     3a4:	4d 41       	sbci	r20, 0x1D	; 29
     3a6:	58 2d       	mov	r21, r8
     3a8:	54 49       	sbci	r21, 0x94	; 148
     3aa:	4d 45       	sbci	r20, 0x5D	; 93
     3ac:	3d 33       	cpi	r19, 0x3D	; 61
     3ae:	30 20       	and	r3, r0
     3b0:	20 20       	and	r2, r0
     3b2:	20 20       	and	r2, r0
     3b4:	20 20       	and	r2, r0
     3b6:	20 20       	and	r2, r0
     3b8:	3a 20       	and	r3, r10
     3ba:	73 65       	ori	r23, 0x53	; 83
     3bc:	74 20       	and	r7, r4
     3be:	76 65       	ori	r23, 0x56	; 86
     3c0:	6e 74       	andi	r22, 0x4E	; 78
     3c2:	69 6c       	ori	r22, 0xC9	; 201
     3c4:	61 74       	andi	r22, 0x41	; 65
     3c6:	69 6f       	ori	r22, 0xF9	; 249
     3c8:	6e 20       	and	r6, r14
     3ca:	6d 61       	ori	r22, 0x1D	; 29
     3cc:	78 20       	and	r7, r8
     3ce:	74 69       	ori	r23, 0x94	; 148
     3d0:	6d 65       	ori	r22, 0x5D	; 93
     3d2:	20 69       	ori	r18, 0x90	; 144
     3d4:	6e 20       	and	r6, r14
     3d6:	6d 69       	ori	r22, 0x9D	; 157
     3d8:	6e 75       	andi	r22, 0x5E	; 94
     3da:	74 65       	ori	r23, 0x54	; 84
     3dc:	73 0a       	sbc	r7, r19
     3de:	20 56       	subi	r18, 0x60	; 96
     3e0:	45 4e       	sbci	r20, 0xE5	; 229
     3e2:	54 2d       	mov	r21, r4
     3e4:	4d 49       	sbci	r20, 0x9D	; 157
     3e6:	4e 2d       	mov	r20, r14
     3e8:	54 49       	sbci	r21, 0x94	; 148
     3ea:	4d 45       	sbci	r20, 0x5D	; 93
     3ec:	3d 32       	cpi	r19, 0x2D	; 45
     3ee:	20 20       	and	r2, r0
     3f0:	20 20       	and	r2, r0
     3f2:	20 20       	and	r2, r0
     3f4:	20 20       	and	r2, r0
     3f6:	20 20       	and	r2, r0
     3f8:	3a 20       	and	r3, r10
     3fa:	73 65       	ori	r23, 0x53	; 83
     3fc:	74 20       	and	r7, r4
     3fe:	76 65       	ori	r23, 0x56	; 86
     400:	6e 74       	andi	r22, 0x4E	; 78
     402:	69 6c       	ori	r22, 0xC9	; 201
     404:	61 74       	andi	r22, 0x41	; 65
     406:	69 6f       	ori	r22, 0xF9	; 249
     408:	6e 20       	and	r6, r14
     40a:	6d 69       	ori	r22, 0x9D	; 157
     40c:	6e 20       	and	r6, r14
     40e:	74 69       	ori	r23, 0x94	; 148
     410:	6d 65       	ori	r22, 0x5D	; 93
     412:	20 69       	ori	r18, 0x90	; 144
     414:	6e 20       	and	r6, r14
     416:	6d 69       	ori	r22, 0x9D	; 157
     418:	6e 75       	andi	r22, 0x5E	; 94
     41a:	74 65       	ori	r23, 0x54	; 84
     41c:	73 0a       	sbc	r7, r19
     41e:	20 56       	subi	r18, 0x60	; 96
     420:	45 4e       	sbci	r20, 0xE5	; 229
     422:	54 2d       	mov	r21, r4
     424:	4d 49       	sbci	r20, 0x9D	; 157
     426:	4e 2d       	mov	r20, r14
     428:	54 45       	sbci	r21, 0x54	; 84
     42a:	4d 50       	subi	r20, 0x0D	; 13
     42c:	3d 31       	cpi	r19, 0x1D	; 29
     42e:	38 20       	and	r3, r8
     430:	20 20       	and	r2, r0
     432:	20 20       	and	r2, r0
     434:	20 20       	and	r2, r0
     436:	20 20       	and	r2, r0
     438:	3a 20       	and	r3, r10
     43a:	73 65       	ori	r23, 0x53	; 83
     43c:	74 20       	and	r7, r4
     43e:	6d 69       	ori	r22, 0x9D	; 157
     440:	6e 69       	ori	r22, 0x9E	; 158
     442:	6d 61       	ori	r22, 0x1D	; 29
     444:	6c 20       	and	r6, r12
     446:	74 65       	ori	r23, 0x54	; 84
     448:	6d 70       	andi	r22, 0x0D	; 13
     44a:	65 72       	andi	r22, 0x25	; 37
     44c:	61 74       	andi	r22, 0x41	; 65
     44e:	75 72       	andi	r23, 0x25	; 37
     450:	65 20       	and	r6, r5
     452:	77 68       	ori	r23, 0x87	; 135
     454:	65 6e       	ori	r22, 0xE5	; 229
     456:	20 76       	andi	r18, 0x60	; 96
     458:	65 6e       	ori	r22, 0xE5	; 229
     45a:	74 69       	ori	r23, 0x94	; 148
     45c:	6c 61       	ori	r22, 0x1C	; 28
     45e:	74 69       	ori	r23, 0x94	; 148
     460:	6f 6e       	ori	r22, 0xEF	; 239
     462:	20 63       	ori	r18, 0x30	; 48
     464:	61 6e       	ori	r22, 0xE1	; 225
     466:	20 62       	ori	r18, 0x20	; 32
     468:	65 20       	and	r6, r5
     46a:	73 74       	andi	r23, 0x43	; 67
     46c:	61 72       	andi	r22, 0x21	; 33
     46e:	74 65       	ori	r23, 0x54	; 84
     470:	64 0a       	sbc	r6, r20
     472:	20 56       	subi	r18, 0x60	; 96
     474:	45 4e       	sbci	r20, 0xE5	; 229
     476:	54 2d       	mov	r21, r4
     478:	41 46       	sbci	r20, 0x61	; 97
     47a:	54 45       	sbci	r21, 0x54	; 84
     47c:	52 3d       	cpi	r21, 0xD2	; 210
     47e:	30 20       	and	r3, r0
     480:	20 20       	and	r2, r0
     482:	20 20       	and	r2, r0
     484:	20 20       	and	r2, r0
     486:	20 20       	and	r2, r0
     488:	20 20       	and	r2, r0
     48a:	20 20       	and	r2, r0
     48c:	3a 20       	and	r3, r10
     48e:	72 75       	andi	r23, 0x52	; 82
     490:	6e 20       	and	r6, r14
     492:	76 65       	ori	r23, 0x56	; 86
     494:	6e 74       	andi	r22, 0x4E	; 78
     496:	69 6c       	ori	r22, 0xC9	; 201
     498:	61 74       	andi	r22, 0x41	; 65
     49a:	69 6f       	ori	r22, 0xF9	; 249
     49c:	6e 20       	and	r6, r14
     49e:	6f 6e       	ori	r22, 0xEF	; 239
     4a0:	6c 79       	andi	r22, 0x9C	; 156
     4a2:	20 69       	ori	r18, 0x90	; 144
     4a4:	66 20       	and	r6, r6
     4a6:	74 68       	ori	r23, 0x84	; 132
     4a8:	65 20       	and	r6, r5
     4aa:	72 6f       	ori	r23, 0xF2	; 242
     4ac:	6f 6d       	ori	r22, 0xDF	; 223
     4ae:	20 69       	ori	r18, 0x90	; 144
     4b0:	73 20       	and	r7, r3
     4b2:	65 6d       	ori	r22, 0xD5	; 213
     4b4:	70 74       	andi	r23, 0x40	; 64
     4b6:	79 2e       	mov	r7, r25
     4b8:	20 31       	cpi	r18, 0x10	; 16
     4ba:	20 2d       	mov	r18, r0
     4bc:	20 79       	andi	r18, 0x90	; 144
     4be:	65 73       	andi	r22, 0x35	; 53
     4c0:	2c 20       	and	r2, r12
     4c2:	30 20       	and	r3, r0
     4c4:	2d 20       	and	r2, r13
     4c6:	6e 6f       	ori	r22, 0xFE	; 254
     4c8:	0a 20       	and	r0, r10
     4ca:	49 4e       	sbci	r20, 0xE9	; 233
     4cc:	56 2d       	mov	r21, r6
     4ce:	57 41       	sbci	r21, 0x17	; 23
     4d0:	49 54       	subi	r20, 0x49	; 73
     4d2:	2d 54       	subi	r18, 0x4D	; 77
     4d4:	49 4d       	sbci	r20, 0xD9	; 217
     4d6:	45 3d       	cpi	r20, 0xD5	; 213
     4d8:	31 30       	cpi	r19, 0x01	; 1
     4da:	20 20       	and	r2, r0
     4dc:	20 20       	and	r2, r0
     4de:	20 20       	and	r2, r0
     4e0:	20 20       	and	r2, r0
     4e2:	20 3a       	cpi	r18, 0xA0	; 160
     4e4:	20 73       	andi	r18, 0x30	; 48
     4e6:	65 74       	andi	r22, 0x45	; 69
     4e8:	20 77       	andi	r18, 0x70	; 112
     4ea:	61 69       	ori	r22, 0x91	; 145
     4ec:	74 20       	and	r7, r4
     4ee:	74 69       	ori	r23, 0x94	; 148
     4f0:	6d 65       	ori	r22, 0x5D	; 93
     4f2:	20 69       	ori	r18, 0x90	; 144
     4f4:	6e 20       	and	r6, r14
     4f6:	6d 69       	ori	r22, 0x9D	; 157
     4f8:	6e 75       	andi	r22, 0x5E	; 94
     4fa:	74 65       	ori	r23, 0x54	; 84
     4fc:	73 20       	and	r7, r3
     4fe:	77 68       	ori	r23, 0x87	; 135
     500:	65 6e       	ori	r22, 0xE5	; 229
     502:	20 63       	ori	r18, 0x30	; 48
     504:	6f 6e       	ori	r22, 0xEF	; 239
     506:	74 72       	andi	r23, 0x24	; 36
     508:	6f 6c       	ori	r22, 0xCF	; 207
     50a:	6c 65       	ori	r22, 0x5C	; 92
     50c:	72 20       	and	r7, r2
     50e:	67 75       	andi	r22, 0x57	; 87
     510:	65 73       	andi	r22, 0x35	; 53
     512:	73 20       	and	r7, r3
     514:	74 68       	ori	r23, 0x84	; 132
     516:	61 74       	andi	r22, 0x41	; 65
     518:	20 73       	andi	r18, 0x30	; 48
     51a:	6f 6d       	ori	r22, 0xDF	; 223
     51c:	65 62       	ori	r22, 0x25	; 37
     51e:	6f 64       	ori	r22, 0x4F	; 79
     520:	79 20       	and	r7, r9
     522:	69 6e       	ori	r22, 0xE9	; 233
     524:	20 77       	andi	r18, 0x70	; 112
     526:	69 74       	andi	r22, 0x49	; 73
     528:	68 6f       	ori	r22, 0xF8	; 248
     52a:	75 74       	andi	r23, 0x45	; 69
     52c:	20 61       	ori	r18, 0x10	; 16
     52e:	6e 79       	andi	r22, 0x9E	; 158
     530:	20 73       	andi	r18, 0x30	; 48
     532:	69 67       	ori	r22, 0x79	; 121
     534:	6e 61       	ori	r22, 0x1E	; 30
     536:	6c 20       	and	r6, r12
     538:	66 72       	andi	r22, 0x26	; 38
     53a:	6f 6d       	ori	r22, 0xDF	; 223
     53c:	20 73       	andi	r18, 0x30	; 48
     53e:	65 6e       	ori	r22, 0xE5	; 229
     540:	73 6f       	ori	r23, 0xF3	; 243
     542:	72 73       	andi	r23, 0x32	; 50
     544:	0a 20       	and	r0, r10
     546:	53 4f       	sbci	r21, 0xF3	; 243
     548:	4d 45       	sbci	r20, 0x5D	; 93
     54a:	42 4f       	sbci	r20, 0xF2	; 242
     54c:	44 59       	subi	r20, 0x94	; 148
     54e:	2d 49       	sbci	r18, 0x9D	; 157
     550:	4e 2d       	mov	r20, r14
     552:	57 41       	sbci	r21, 0x17	; 23
     554:	49 54       	subi	r20, 0x49	; 73
     556:	2d 54       	subi	r18, 0x4D	; 77
     558:	49 4d       	sbci	r20, 0xD9	; 217
     55a:	45 3d       	cpi	r20, 0xD5	; 213
     55c:	34 30       	cpi	r19, 0x04	; 4
     55e:	20 3a       	cpi	r18, 0xA0	; 160
     560:	20 73       	andi	r18, 0x30	; 48
     562:	65 74       	andi	r22, 0x45	; 69
     564:	20 77       	andi	r18, 0x70	; 112
     566:	61 69       	ori	r22, 0x91	; 145
     568:	74 20       	and	r7, r4
     56a:	74 69       	ori	r23, 0x94	; 148
     56c:	6d 65       	ori	r22, 0x5D	; 93
     56e:	20 69       	ori	r18, 0x90	; 144
     570:	6e 20       	and	r6, r14
     572:	6d 69       	ori	r22, 0x9D	; 157
     574:	6e 75       	andi	r22, 0x5E	; 94
     576:	74 65       	ori	r23, 0x54	; 84
     578:	73 20       	and	r7, r3
     57a:	77 68       	ori	r23, 0x87	; 135
     57c:	65 6e       	ori	r22, 0xE5	; 229
     57e:	20 73       	andi	r18, 0x30	; 48
     580:	6f 6d       	ori	r22, 0xDF	; 223
     582:	65 62       	ori	r22, 0x25	; 37
     584:	6f 64       	ori	r22, 0x4F	; 79
     586:	79 20       	and	r7, r9
     588:	69 6e       	ori	r22, 0xE9	; 233
     58a:	20 61       	ori	r18, 0x10	; 16
     58c:	6c 72       	andi	r22, 0x2C	; 44
     58e:	65 61       	ori	r22, 0x15	; 21
     590:	64 79       	andi	r22, 0x94	; 148
     592:	20 61       	ori	r18, 0x10	; 16
     594:	6e 64       	ori	r22, 0x4E	; 78
     596:	20 6e       	ori	r18, 0xE0	; 224
     598:	6f 20       	and	r6, r15
     59a:	61 6e       	ori	r22, 0xE1	; 225
     59c:	79 20       	and	r7, r9
     59e:	73 69       	ori	r23, 0x93	; 147
     5a0:	67 6e       	ori	r22, 0xE7	; 231
     5a2:	61 6c       	ori	r22, 0xC1	; 193
     5a4:	20 66       	ori	r18, 0x60	; 96
     5a6:	72 6f       	ori	r23, 0xF2	; 242
     5a8:	6d 20       	and	r6, r13
     5aa:	73 65       	ori	r23, 0x53	; 83
     5ac:	6e 73       	andi	r22, 0x3E	; 62
     5ae:	6f 72       	andi	r22, 0x2F	; 47
     5b0:	73 0a       	sbc	r7, r19
     5b2:	20 4d       	sbci	r18, 0xD0	; 208
     5b4:	55 53       	subi	r21, 0x35	; 53
     5b6:	49 43       	sbci	r20, 0x39	; 57
     5b8:	2d 45       	sbci	r18, 0x5D	; 93
     5ba:	4e 41       	sbci	r20, 0x1E	; 30
     5bc:	42 4c       	sbci	r20, 0xC2	; 194
     5be:	45 44       	sbci	r20, 0x45	; 69
     5c0:	3d 31       	cpi	r19, 0x1D	; 29
     5c2:	20 20       	and	r2, r0
     5c4:	20 20       	and	r2, r0
     5c6:	20 20       	and	r2, r0
     5c8:	20 20       	and	r2, r0
     5ca:	20 20       	and	r2, r0
     5cc:	3a 20       	and	r3, r10
     5ce:	65 6e       	ori	r22, 0xE5	; 229
     5d0:	61 62       	ori	r22, 0x21	; 33
     5d2:	6c 65       	ori	r22, 0x5C	; 92
     5d4:	20 6d       	ori	r18, 0xD0	; 208
     5d6:	75 73       	andi	r23, 0x35	; 53
     5d8:	69 63       	ori	r22, 0x39	; 57
     5da:	2c 20       	and	r2, r12
     5dc:	64 65       	ori	r22, 0x54	; 84
     5de:	66 61       	ori	r22, 0x16	; 22
     5e0:	75 6c       	ori	r23, 0xC5	; 197
     5e2:	74 20       	and	r7, r4
     5e4:	69 73       	andi	r22, 0x39	; 57
     5e6:	20 31       	cpi	r18, 0x10	; 16
     5e8:	20 28       	or	r2, r0
     5ea:	45 6e       	ori	r20, 0xE5	; 229
     5ec:	61 62       	ori	r22, 0x21	; 33
     5ee:	6c 65       	ori	r22, 0x5C	; 92
     5f0:	64 29       	or	r22, r4
     5f2:	20 0a       	sbc	r2, r16
     5f4:	20 4c       	sbci	r18, 0xC0	; 192
     5f6:	49 47       	sbci	r20, 0x79	; 121
     5f8:	48 54       	subi	r20, 0x48	; 72
     5fa:	2d 4d       	sbci	r18, 0xDD	; 221
     5fc:	41 49       	sbci	r20, 0x91	; 145
     5fe:	4e 2d       	mov	r20, r14
     600:	45 4e       	sbci	r20, 0xE5	; 229
     602:	41 42       	sbci	r20, 0x21	; 33
     604:	4c 45       	sbci	r20, 0x5C	; 92
     606:	44 3d       	cpi	r20, 0xD4	; 212
     608:	31 20       	and	r3, r1
     60a:	20 20       	and	r2, r0
     60c:	20 20       	and	r2, r0
     60e:	3a 20       	and	r3, r10
     610:	65 6e       	ori	r22, 0xE5	; 229
     612:	61 62       	ori	r22, 0x21	; 33
     614:	6c 65       	ori	r22, 0x5C	; 92
     616:	20 70       	andi	r18, 0x00	; 0
     618:	72 69       	ori	r23, 0x92	; 146
     61a:	6d 61       	ori	r22, 0x1D	; 29
     61c:	72 79       	andi	r23, 0x92	; 146
     61e:	20 6c       	ori	r18, 0xC0	; 192
     620:	69 67       	ori	r22, 0x79	; 121
     622:	68 74       	andi	r22, 0x48	; 72
     624:	2c 20       	and	r2, r12
     626:	64 65       	ori	r22, 0x54	; 84
     628:	66 61       	ori	r22, 0x16	; 22
     62a:	75 6c       	ori	r23, 0xC5	; 197
     62c:	74 20       	and	r7, r4
     62e:	69 73       	andi	r22, 0x39	; 57
     630:	20 31       	cpi	r18, 0x10	; 16
     632:	20 28       	or	r2, r0
     634:	45 6e       	ori	r20, 0xE5	; 229
     636:	61 62       	ori	r22, 0x21	; 33
     638:	6c 65       	ori	r22, 0x5C	; 92
     63a:	64 29       	or	r22, r4
     63c:	20 0a       	sbc	r2, r16
     63e:	20 4c       	sbci	r18, 0xC0	; 192
     640:	49 47       	sbci	r20, 0x79	; 121
     642:	48 54       	subi	r20, 0x48	; 72
     644:	2d 53       	subi	r18, 0x3D	; 61
     646:	45 43       	sbci	r20, 0x35	; 53
     648:	2d 45       	sbci	r18, 0x5D	; 93
     64a:	4e 41       	sbci	r20, 0x1E	; 30
     64c:	42 4c       	sbci	r20, 0xC2	; 194
     64e:	45 44       	sbci	r20, 0x45	; 69
     650:	3d 31       	cpi	r19, 0x1D	; 29
     652:	20 20       	and	r2, r0
     654:	20 20       	and	r2, r0
     656:	20 20       	and	r2, r0
     658:	3a 20       	and	r3, r10
     65a:	65 6e       	ori	r22, 0xE5	; 229
     65c:	61 62       	ori	r22, 0x21	; 33
     65e:	6c 65       	ori	r22, 0x5C	; 92
     660:	20 73       	andi	r18, 0x30	; 48
     662:	65 63       	ori	r22, 0x35	; 53
     664:	6f 6e       	ori	r22, 0xEF	; 239
     666:	64 61       	ori	r22, 0x14	; 20
     668:	72 79       	andi	r23, 0x92	; 146
     66a:	20 6c       	ori	r18, 0xC0	; 192
     66c:	69 67       	ori	r22, 0x79	; 121
     66e:	68 74       	andi	r22, 0x48	; 72
     670:	2c 20       	and	r2, r12
     672:	64 65       	ori	r22, 0x54	; 84
     674:	66 61       	ori	r22, 0x16	; 22
     676:	75 6c       	ori	r23, 0xC5	; 197
     678:	74 20       	and	r7, r4
     67a:	69 73       	andi	r22, 0x39	; 57
     67c:	20 31       	cpi	r18, 0x10	; 16
     67e:	20 28       	or	r2, r0
     680:	45 6e       	ori	r20, 0xE5	; 229
     682:	61 62       	ori	r22, 0x21	; 33
     684:	6c 65       	ori	r22, 0x5C	; 92
     686:	64 29       	or	r22, r4
     688:	20 0a       	sbc	r2, r16
     68a:	20 4c       	sbci	r18, 0xC0	; 192
     68c:	49 47       	sbci	r20, 0x79	; 121
     68e:	48 54       	subi	r20, 0x48	; 72
     690:	2d 52       	subi	r18, 0x2D	; 45
     692:	45 4c       	sbci	r20, 0xC5	; 197
     694:	41 58       	subi	r20, 0x81	; 129
     696:	2d 45       	sbci	r18, 0x5D	; 93
     698:	4e 41       	sbci	r20, 0x1E	; 30
     69a:	42 4c       	sbci	r20, 0xC2	; 194
     69c:	45 44       	sbci	r20, 0x45	; 69
     69e:	3d 31       	cpi	r19, 0x1D	; 29
     6a0:	20 20       	and	r2, r0
     6a2:	20 20       	and	r2, r0
     6a4:	3a 20       	and	r3, r10
     6a6:	65 6e       	ori	r22, 0xE5	; 229
     6a8:	61 62       	ori	r22, 0x21	; 33
     6aa:	6c 65       	ori	r22, 0x5C	; 92
     6ac:	20 72       	andi	r18, 0x20	; 32
     6ae:	65 6c       	ori	r22, 0xC5	; 197
     6b0:	61 78       	andi	r22, 0x81	; 129
     6b2:	20 6c       	ori	r18, 0xC0	; 192
     6b4:	69 67       	ori	r22, 0x79	; 121
     6b6:	68 74       	andi	r22, 0x48	; 72
     6b8:	2c 20       	and	r2, r12
     6ba:	64 65       	ori	r22, 0x54	; 84
     6bc:	66 61       	ori	r22, 0x16	; 22
     6be:	75 6c       	ori	r23, 0xC5	; 197
     6c0:	74 20       	and	r7, r4
     6c2:	69 73       	andi	r22, 0x39	; 57
     6c4:	20 31       	cpi	r18, 0x10	; 16
     6c6:	20 28       	or	r2, r0
     6c8:	45 6e       	ori	r20, 0xE5	; 229
     6ca:	61 62       	ori	r22, 0x21	; 33
     6cc:	6c 65       	ori	r22, 0x5C	; 92
     6ce:	64 29       	or	r22, r4
     6d0:	20 0a       	sbc	r2, r16
     6d2:	20 53       	subi	r18, 0x30	; 48
     6d4:	45 54       	subi	r20, 0x45	; 69
     6d6:	2d 48       	sbci	r18, 0x8D	; 141
     6d8:	49 47       	sbci	r20, 0x79	; 121
     6da:	48 2d       	mov	r20, r8
     6dc:	50 49       	sbci	r21, 0x90	; 144
     6de:	4e 2d       	mov	r20, r14
     6e0:	4c 45       	sbci	r20, 0x5C	; 92
     6e2:	56 3d       	cpi	r21, 0xD6	; 214
     6e4:	35 20       	and	r3, r5
     6e6:	20 20       	and	r2, r0
     6e8:	20 20       	and	r2, r0
     6ea:	20 20       	and	r2, r0
     6ec:	3a 20       	and	r3, r10
     6ee:	73 65       	ori	r23, 0x53	; 83
     6f0:	74 20       	and	r7, r4
     6f2:	48 49       	sbci	r20, 0x98	; 152
     6f4:	47 48       	sbci	r20, 0x87	; 135
     6f6:	20 6c       	ori	r18, 0xC0	; 192
     6f8:	6f 67       	ori	r22, 0x7F	; 127
     6fa:	69 63       	ori	r22, 0x39	; 57
     6fc:	20 6c       	ori	r18, 0xC0	; 192
     6fe:	65 76       	andi	r22, 0x65	; 101
     700:	65 6c       	ori	r22, 0xC5	; 197
     702:	20 66       	ori	r18, 0x60	; 96
     704:	6f 72       	andi	r22, 0x2F	; 47
     706:	20 6f       	ori	r18, 0xF0	; 240
     708:	75 74       	andi	r23, 0x45	; 69
     70a:	70 75       	andi	r23, 0x50	; 80
     70c:	74 20       	and	r7, r4
     70e:	70 69       	ori	r23, 0x90	; 144
     710:	6e 20       	and	r6, r14
     712:	77 69       	ori	r23, 0x97	; 151
     714:	74 68       	ori	r23, 0x84	; 132
     716:	20 6e       	ori	r18, 0xE0	; 224
     718:	75 6d       	ori	r23, 0xD5	; 213
     71a:	62 65       	ori	r22, 0x52	; 82
     71c:	72 20       	and	r7, r2
     71e:	3a 20       	and	r3, r10
     720:	30 2d       	mov	r19, r0
     722:	37 0a       	sbc	r3, r23
     724:	20 53       	subi	r18, 0x30	; 48
     726:	45 54       	subi	r20, 0x45	; 69
     728:	2d 4c       	sbci	r18, 0xCD	; 205
     72a:	4f 57       	subi	r20, 0x7F	; 127
     72c:	2d 50       	subi	r18, 0x0D	; 13
     72e:	49 4e       	sbci	r20, 0xE9	; 233
     730:	2d 4c       	sbci	r18, 0xCD	; 205
     732:	45 56       	subi	r20, 0x65	; 101
     734:	3d 33       	cpi	r19, 0x3D	; 61
     736:	20 20       	and	r2, r0
     738:	20 20       	and	r2, r0
     73a:	20 20       	and	r2, r0
     73c:	20 20       	and	r2, r0
     73e:	3a 20       	and	r3, r10
     740:	73 65       	ori	r23, 0x53	; 83
     742:	74 20       	and	r7, r4
     744:	48 49       	sbci	r20, 0x98	; 152
     746:	47 48       	sbci	r20, 0x87	; 135
     748:	20 6c       	ori	r18, 0xC0	; 192
     74a:	6f 67       	ori	r22, 0x7F	; 127
     74c:	69 63       	ori	r22, 0x39	; 57
     74e:	20 6c       	ori	r18, 0xC0	; 192
     750:	65 76       	andi	r22, 0x65	; 101
     752:	65 6c       	ori	r22, 0xC5	; 197
     754:	20 66       	ori	r18, 0x60	; 96
     756:	6f 72       	andi	r22, 0x2F	; 47
     758:	20 6f       	ori	r18, 0xF0	; 240
     75a:	75 74       	andi	r23, 0x45	; 69
     75c:	70 75       	andi	r23, 0x50	; 80
     75e:	74 20       	and	r7, r4
     760:	70 69       	ori	r23, 0x90	; 144
     762:	6e 20       	and	r6, r14
     764:	77 69       	ori	r23, 0x97	; 151
     766:	74 68       	ori	r23, 0x84	; 132
     768:	20 6e       	ori	r18, 0xE0	; 224
     76a:	75 6d       	ori	r23, 0xD5	; 213
     76c:	62 65       	ori	r22, 0x52	; 82
     76e:	72 20       	and	r7, r2
     770:	3a 20       	and	r3, r10
     772:	30 2d       	mov	r19, r0
     774:	37 0a       	sbc	r3, r23
     776:	20 50       	subi	r18, 0x00	; 0
     778:	49 4e       	sbci	r20, 0xE9	; 233
     77a:	2d 4c       	sbci	r18, 0xCD	; 205
     77c:	45 56       	subi	r20, 0x65	; 101
     77e:	45 4c       	sbci	r20, 0xC5	; 197
     780:	20 20       	and	r2, r0
     782:	20 20       	and	r2, r0
     784:	20 20       	and	r2, r0
     786:	20 20       	and	r2, r0
     788:	20 20       	and	r2, r0
     78a:	20 20       	and	r2, r0
     78c:	20 20       	and	r2, r0
     78e:	20 20       	and	r2, r0
     790:	3a 20       	and	r3, r10
     792:	70 72       	andi	r23, 0x20	; 32
     794:	69 6e       	ori	r22, 0xE9	; 233
     796:	74 20       	and	r7, r4
     798:	70 69       	ori	r23, 0x90	; 144
     79a:	6e 20       	and	r6, r14
     79c:	6c 6f       	ori	r22, 0xFC	; 252
     79e:	67 69       	ori	r22, 0x97	; 151
     7a0:	63 20       	and	r6, r3
     7a2:	6c 65       	ori	r22, 0x5C	; 92
     7a4:	76 65       	ori	r23, 0x56	; 86
     7a6:	6c 20       	and	r6, r12
     7a8:	66 6f       	ori	r22, 0xF6	; 246
     7aa:	72 20       	and	r7, r2
     7ac:	6f 75       	andi	r22, 0x5F	; 95
     7ae:	74 70       	andi	r23, 0x04	; 4
     7b0:	75 74       	andi	r23, 0x45	; 69
     7b2:	20 70       	andi	r18, 0x00	; 0
     7b4:	69 6e       	ori	r22, 0xE9	; 233
     7b6:	73 0a       	sbc	r7, r19
     7b8:	20 4f       	sbci	r18, 0xF0	; 240
     7ba:	55 54       	subi	r21, 0x45	; 69
     7bc:	50 55       	subi	r21, 0x50	; 80
     7be:	54 2d       	mov	r21, r4
     7c0:	53 54       	subi	r21, 0x43	; 67
     7c2:	41 54       	subi	r20, 0x41	; 65
     7c4:	45 20       	and	r4, r5
     7c6:	20 20       	and	r2, r0
     7c8:	20 20       	and	r2, r0
     7ca:	20 20       	and	r2, r0
     7cc:	20 20       	and	r2, r0
     7ce:	20 20       	and	r2, r0
     7d0:	20 20       	and	r2, r0
     7d2:	3a 20       	and	r3, r10
     7d4:	70 72       	andi	r23, 0x20	; 32
     7d6:	69 6e       	ori	r22, 0xE9	; 233
     7d8:	74 20       	and	r7, r4
     7da:	6f 75       	andi	r22, 0x5F	; 95
     7dc:	74 70       	andi	r23, 0x04	; 4
     7de:	75 74       	andi	r23, 0x45	; 69
     7e0:	20 73       	andi	r18, 0x30	; 48
     7e2:	74 61       	ori	r23, 0x14	; 20
     7e4:	74 65       	ori	r23, 0x54	; 84
     7e6:	73 0a       	sbc	r7, r19
     7e8:	20 53       	subi	r18, 0x30	; 48
     7ea:	45 54       	subi	r20, 0x45	; 69
     7ec:	2d 50       	subi	r18, 0x0D	; 13
     7ee:	49 4e       	sbci	r20, 0xE9	; 233
     7f0:	2d 4f       	sbci	r18, 0xFD	; 253
     7f2:	4e 3d       	cpi	r20, 0xDE	; 222
     7f4:	32 20       	and	r3, r2
     7f6:	20 20       	and	r2, r0
     7f8:	20 20       	and	r2, r0
     7fa:	20 20       	and	r2, r0
     7fc:	20 20       	and	r2, r0
     7fe:	20 20       	and	r2, r0
     800:	20 20       	and	r2, r0
     802:	3a 20       	and	r3, r10
     804:	73 65       	ori	r23, 0x53	; 83
     806:	74 20       	and	r7, r4
     808:	70 69       	ori	r23, 0x90	; 144
     80a:	6e 20       	and	r6, r14
     80c:	74 6f       	ori	r23, 0xF4	; 244
     80e:	20 4f       	sbci	r18, 0xF0	; 240
     810:	4e 20       	and	r4, r14
     812:	73 74       	andi	r23, 0x43	; 67
     814:	61 74       	andi	r22, 0x41	; 65
     816:	65 20       	and	r6, r5
     818:	75 73       	andi	r23, 0x35	; 53
     81a:	69 6e       	ori	r22, 0xE9	; 233
     81c:	67 20       	and	r6, r7
     81e:	69 74       	andi	r22, 0x49	; 73
     820:	73 20       	and	r7, r3
     822:	69 6e       	ori	r22, 0xE9	; 233
     824:	64 65       	ori	r22, 0x54	; 84
     826:	78 0a       	sbc	r7, r24
     828:	20 53       	subi	r18, 0x30	; 48
     82a:	45 54       	subi	r20, 0x45	; 69
     82c:	2d 50       	subi	r18, 0x0D	; 13
     82e:	49 4e       	sbci	r20, 0xE9	; 233
     830:	2d 4f       	sbci	r18, 0xFD	; 253
     832:	46 46       	sbci	r20, 0x66	; 102
     834:	3d 33       	cpi	r19, 0x3D	; 61
     836:	20 20       	and	r2, r0
     838:	20 20       	and	r2, r0
     83a:	20 20       	and	r2, r0
     83c:	20 20       	and	r2, r0
     83e:	20 20       	and	r2, r0
     840:	20 20       	and	r2, r0
     842:	3a 20       	and	r3, r10
     844:	73 65       	ori	r23, 0x53	; 83
     846:	74 20       	and	r7, r4
     848:	70 69       	ori	r23, 0x90	; 144
     84a:	6e 20       	and	r6, r14
     84c:	74 6f       	ori	r23, 0xF4	; 244
     84e:	20 4f       	sbci	r18, 0xF0	; 240
     850:	46 46       	sbci	r20, 0x66	; 102
     852:	20 73       	andi	r18, 0x30	; 48
     854:	74 61       	ori	r23, 0x14	; 20
     856:	74 65       	ori	r23, 0x54	; 84
     858:	20 75       	andi	r18, 0x50	; 80
     85a:	73 69       	ori	r23, 0x93	; 147
     85c:	6e 67       	ori	r22, 0x7E	; 126
     85e:	20 69       	ori	r18, 0x90	; 144
     860:	74 73       	andi	r23, 0x34	; 52
     862:	20 69       	ori	r18, 0x90	; 144
     864:	6e 64       	ori	r22, 0x4E	; 78
     866:	65 78       	andi	r22, 0x85	; 133
     868:	0a 20       	and	r0, r10
     86a:	0a 20       	and	r0, r10
     86c:	4f 55       	subi	r20, 0x5F	; 95
     86e:	54 50       	subi	r21, 0x04	; 4
     870:	55 54       	subi	r21, 0x45	; 69
     872:	20 50       	subi	r18, 0x00	; 0
     874:	49 4e       	sbci	r20, 0xE9	; 233
     876:	53 3a       	cpi	r21, 0xA3	; 163
     878:	20 4d       	sbci	r18, 0xD0	; 208
     87a:	61 69       	ori	r22, 0x91	; 145
     87c:	6e 20       	and	r6, r14
     87e:	4c 69       	ori	r20, 0x9C	; 156
     880:	67 68       	ori	r22, 0x87	; 135
     882:	74 20       	and	r7, r4
     884:	30 2c       	mov	r3, r0
     886:	20 53       	subi	r18, 0x30	; 48
     888:	65 63       	ori	r22, 0x35	; 53
     88a:	6f 6e       	ori	r22, 0xEF	; 239
     88c:	64 61       	ori	r22, 0x14	; 20
     88e:	72 79       	andi	r23, 0x92	; 146
     890:	20 4c       	sbci	r18, 0xC0	; 192
     892:	69 67       	ori	r22, 0x79	; 121
     894:	68 74       	andi	r22, 0x48	; 72
     896:	20 31       	cpi	r18, 0x10	; 16
     898:	2c 20       	and	r2, r12
     89a:	56 65       	ori	r21, 0x56	; 86
     89c:	6e 74       	andi	r22, 0x4E	; 78
     89e:	69 6c       	ori	r22, 0xC9	; 201
     8a0:	61 74       	andi	r22, 0x41	; 65
     8a2:	69 6f       	ori	r22, 0xF9	; 249
     8a4:	6e 20       	and	r6, r14
     8a6:	32 2c       	mov	r3, r2
     8a8:	20 4d       	sbci	r18, 0xD0	; 208
     8aa:	75 73       	andi	r23, 0x35	; 53
     8ac:	69 63       	ori	r22, 0x39	; 57
     8ae:	20 33       	cpi	r18, 0x30	; 48
     8b0:	0a 20       	and	r0, r10
     8b2:	2d 2d       	mov	r18, r13
     8b4:	2d 2d       	mov	r18, r13
     8b6:	2d 2d       	mov	r18, r13
     8b8:	2d 2d       	mov	r18, r13
     8ba:	2d 2d       	mov	r18, r13
     8bc:	2d 2d       	mov	r18, r13
     8be:	2d 2d       	mov	r18, r13
     8c0:	2d 2d       	mov	r18, r13
     8c2:	2d 2d       	mov	r18, r13
     8c4:	2d 2d       	mov	r18, r13
     8c6:	2d 2d       	mov	r18, r13
     8c8:	2d 2d       	mov	r18, r13
     8ca:	2d 2d       	mov	r18, r13
     8cc:	2d 2d       	mov	r18, r13
     8ce:	2d 2d       	mov	r18, r13
     8d0:	2d 2d       	mov	r18, r13
     8d2:	2d 2d       	mov	r18, r13
     8d4:	2d 2d       	mov	r18, r13
     8d6:	2d 2d       	mov	r18, r13
     8d8:	2d 2d       	mov	r18, r13
     8da:	2d 2d       	mov	r18, r13
     8dc:	2d 2d       	mov	r18, r13
     8de:	2d 2d       	mov	r18, r13
     8e0:	2d 2d       	mov	r18, r13
     8e2:	2d 2d       	mov	r18, r13
     8e4:	2d 2d       	mov	r18, r13
     8e6:	2d 2d       	mov	r18, r13
     8e8:	2d 2d       	mov	r18, r13
     8ea:	2d 2d       	mov	r18, r13
     8ec:	2d 2d       	mov	r18, r13
     8ee:	2d 2d       	mov	r18, r13
     8f0:	2d 2d       	mov	r18, r13
     8f2:	2d 2d       	mov	r18, r13
     8f4:	2d 2d       	mov	r18, r13
     8f6:	2d 2d       	mov	r18, r13
     8f8:	2d 2d       	mov	r18, r13
     8fa:	2d 2d       	mov	r18, r13
     8fc:	2d 2d       	mov	r18, r13
     8fe:	2d 2d       	mov	r18, r13
     900:	2d 2d       	mov	r18, r13
     902:	2d 2d       	mov	r18, r13
     904:	2d 2d       	mov	r18, r13
     906:	2d 2d       	mov	r18, r13
     908:	2d 2d       	mov	r18, r13
     90a:	2d 0a       	sbc	r2, r29
     90c:	20 00       	.word	0x0020	; ????

0000090e <_ZL14msg_test_music>:
     90e:	4d 75 73 69 63 20 74 65 73 74 2e 2e 2e 0a 00        Music test.....

0000091d <_ZL20msg_test_ventilation>:
     91d:	56 65 6e 74 69 6c 61 74 69 6f 6e 20 74 65 73 74     Ventilation test
     92d:	2e 2e 2e 0a 00                                      .....

00000932 <_ZL29msg_test_main_secondary_light>:
     932:	4d 61 69 6e 20 61 6e 64 20 73 65 63 6f 6e 64 61     Main and seconda
     942:	72 79 20 6c 69 67 68 74 20 74 65 73 74 2e 2e 2e     ry light test...
     952:	0a 00                                               ..

00000954 <_ZL24msg_test_secondary_light>:
     954:	53 65 63 6f 6e 64 61 72 79 20 6c 69 67 68 74 20     Secondary light 
     964:	74 65 73 74 2e 2e 2e 0a 00                          test.....

0000096d <_ZL19msg_test_main_light>:
     96d:	4d 61 69 6e 20 6c 69 67 68 74 20 74 65 73 74 2e     Main light test.
     97d:	2e 2e 0a 00                                         ....

00000981 <_ZL12msg_test_end>:
     981:	45 6e 64 20 74 65 73 74 69 6e 67 0a 00              End testing..

0000098e <_ZL14msg_test_start>:
     98e:	53 74 61 72 74 20 74 65 73 74 69 6e 67 0a 00        Start testing..

0000099d <_ZL15msg_out_changed>:
     99d:	5b 53 74 61 74 65 5d 3a 20 4f 75 74 70 75 74 20     [State]: Output 
     9ad:	25 64 20 73 65 74 20 74 6f 20 25 73 0a 00           %d set to %s..

000009bb <_ZL12msg_light_on>:
     9bb:	5b 43 6f 6d 6d 61 6e 64 5d 3a 20 4c 69 67 68 74     [Command]: Light
     9cb:	20 4f 4e 0a 00                                       ON..

000009d0 <_ZL26msg_relax_mode_deactivated>:
     9d0:	5b 43 6f 6d 6d 61 6e 64 5d 3a 20 52 65 6c 61 78     [Command]: Relax
     9e0:	20 4d 6f 64 65 20 44 65 61 63 74 69 76 61 74 65      Mode Deactivate
     9f0:	64 0a 00                                            d..

000009f3 <_ZL24msg_relax_mode_activated>:
     9f3:	5b 43 6f 6d 6d 61 6e 64 5d 3a 20 52 65 6c 61 78     [Command]: Relax
     a03:	20 4d 6f 64 65 20 41 63 74 69 76 61 74 65 64 0a      Mode Activated.
	...

00000a14 <_ZL10msg_uptime>:
     a14:	55 70 74 69 6d 65 3a 20 25 64 20 64 61 79 73 20     Uptime: %d days 
     a24:	61 6e 64 20 25 64 20 68 6f 75 72 73 0a 00           and %d hours..

00000a32 <_ZL22msg_temperature_sensor>:
     a32:	54 65 6d 70 65 72 61 74 75 72 65 3a 20 25 64 2e     Temperature: %d.
     a42:	25 64 20 43 0a 00                                   %d C..

00000a48 <_ZL19msg_humidity_sensor>:
     a48:	48 75 6d 69 64 69 74 79 3a 20 25 64 20 25 25 0a     Humidity: %d %%.
	...

00000a59 <_ZL9msg_hello>:
     a59:	42 61 74 68 72 6f 6f 6d 20 63 6f 6e 74 72 6f 6c     Bathroom control
     a69:	6c 65 72 20 69 73 20 73 74 61 72 74 65 64 0a 00     ler is started..
	...

00000a7a <__ctors_end>:
     a7a:	11 24       	eor	r1, r1
     a7c:	1f be       	out	0x3f, r1	; 63
     a7e:	cf ef       	ldi	r28, 0xFF	; 255
     a80:	d8 e0       	ldi	r29, 0x08	; 8
     a82:	de bf       	out	0x3e, r29	; 62
     a84:	cd bf       	out	0x3d, r28	; 61

00000a86 <__do_copy_data>:
     a86:	13 e0       	ldi	r17, 0x03	; 3
     a88:	a0 e0       	ldi	r26, 0x00	; 0
     a8a:	b1 e0       	ldi	r27, 0x01	; 1
     a8c:	e4 e9       	ldi	r30, 0x94	; 148
     a8e:	f9 e2       	ldi	r31, 0x29	; 41
     a90:	02 c0       	rjmp	.+4      	; 0xa96 <__do_copy_data+0x10>
     a92:	05 90       	lpm	r0, Z+
     a94:	0d 92       	st	X+, r0
     a96:	a0 31       	cpi	r26, 0x10	; 16
     a98:	b1 07       	cpc	r27, r17
     a9a:	d9 f7       	brne	.-10     	; 0xa92 <__do_copy_data+0xc>

00000a9c <__do_clear_bss>:
     a9c:	24 e0       	ldi	r18, 0x04	; 4
     a9e:	a0 e1       	ldi	r26, 0x10	; 16
     aa0:	b3 e0       	ldi	r27, 0x03	; 3
     aa2:	01 c0       	rjmp	.+2      	; 0xaa6 <.do_clear_bss_start>

00000aa4 <.do_clear_bss_loop>:
     aa4:	1d 92       	st	X+, r1

00000aa6 <.do_clear_bss_start>:
     aa6:	ab 33       	cpi	r26, 0x3B	; 59
     aa8:	b2 07       	cpc	r27, r18
     aaa:	e1 f7       	brne	.-8      	; 0xaa4 <.do_clear_bss_loop>
     aac:	0e 94 2d 0f 	call	0x1e5a	; 0x1e5a <main>
     ab0:	0c 94 c8 14 	jmp	0x2990	; 0x2990 <_exit>

00000ab4 <__bad_interrupt>:
     ab4:	0c 94 00 00 	jmp	0	; 0x0 <__vectors>

00000ab8 <_Z19check_pin_intteruptPVKhhPVhh>:
     ab8:	fa 01       	movw	r30, r20
     aba:	dc 01       	movw	r26, r24
     abc:	8c 91       	ld	r24, X
     abe:	90 e0       	ldi	r25, 0x00	; 0
     ac0:	02 c0       	rjmp	.+4      	; 0xac6 <_Z19check_pin_intteruptPVKhhPVhh+0xe>
     ac2:	95 95       	asr	r25
     ac4:	87 95       	ror	r24
     ac6:	6a 95       	dec	r22
     ac8:	e2 f7       	brpl	.-8      	; 0xac2 <_Z19check_pin_intteruptPVKhhPVhh+0xa>
     aca:	81 70       	andi	r24, 0x01	; 1
     acc:	60 81       	ld	r22, Z
     ace:	70 e0       	ldi	r23, 0x00	; 0
     ad0:	02 2e       	mov	r0, r18
     ad2:	02 c0       	rjmp	.+4      	; 0xad8 <_Z19check_pin_intteruptPVKhhPVhh+0x20>
     ad4:	75 95       	asr	r23
     ad6:	67 95       	ror	r22
     ad8:	0a 94       	dec	r0
     ada:	e2 f7       	brpl	.-8      	; 0xad4 <_Z19check_pin_intteruptPVKhhPVhh+0x1c>
     adc:	61 70       	andi	r22, 0x01	; 1
     ade:	77 27       	eor	r23, r23
     ae0:	48 2f       	mov	r20, r24
     ae2:	08 2e       	mov	r0, r24
     ae4:	00 0c       	add	r0, r0
     ae6:	55 0b       	sbc	r21, r21
     ae8:	64 17       	cp	r22, r20
     aea:	75 07       	cpc	r23, r21
     aec:	c1 f0       	breq	.+48     	; 0xb1e <_Z19check_pin_intteruptPVKhhPVhh+0x66>
     aee:	30 81       	ld	r19, Z
     af0:	88 23       	and	r24, r24
     af2:	51 f0       	breq	.+20     	; 0xb08 <_Z19check_pin_intteruptPVKhhPVhh+0x50>
     af4:	81 e0       	ldi	r24, 0x01	; 1
     af6:	90 e0       	ldi	r25, 0x00	; 0
     af8:	01 c0       	rjmp	.+2      	; 0xafc <_Z19check_pin_intteruptPVKhhPVhh+0x44>
     afa:	88 0f       	add	r24, r24
     afc:	2a 95       	dec	r18
     afe:	ea f7       	brpl	.-6      	; 0xafa <_Z19check_pin_intteruptPVKhhPVhh+0x42>
     b00:	83 2b       	or	r24, r19
     b02:	80 83       	st	Z, r24
     b04:	81 e0       	ldi	r24, 0x01	; 1
     b06:	08 95       	ret
     b08:	81 e0       	ldi	r24, 0x01	; 1
     b0a:	90 e0       	ldi	r25, 0x00	; 0
     b0c:	01 c0       	rjmp	.+2      	; 0xb10 <_Z19check_pin_intteruptPVKhhPVhh+0x58>
     b0e:	88 0f       	add	r24, r24
     b10:	2a 95       	dec	r18
     b12:	ea f7       	brpl	.-6      	; 0xb0e <_Z19check_pin_intteruptPVKhhPVhh+0x56>
     b14:	80 95       	com	r24
     b16:	83 23       	and	r24, r19
     b18:	80 83       	st	Z, r24
     b1a:	80 e0       	ldi	r24, 0x00	; 0
     b1c:	08 95       	ret
     b1e:	8f ef       	ldi	r24, 0xFF	; 255
     b20:	08 95       	ret

00000b22 <_Z19pin_check_output_onh>:
     b22:	60 91 06 01 	lds	r22, 0x0106	; 0x800106 <_ZL20out_pin_level_config>
     b26:	0c 94 25 10 	jmp	0x204a	; 0x204a <_Z15check_output_onhh>

00000b2a <_Z14pin_set_outputhhh>:
     b2a:	0f 93       	push	r16
     b2c:	1f 93       	push	r17
     b2e:	cf 93       	push	r28
     b30:	df 93       	push	r29
     b32:	c8 2f       	mov	r28, r24
     b34:	16 2f       	mov	r17, r22
     b36:	04 2f       	mov	r16, r20
     b38:	40 91 06 01 	lds	r20, 0x0106	; 0x800106 <_ZL20out_pin_level_config>
     b3c:	0e 94 c2 0f 	call	0x1f84	; 0x1f84 <_Z10set_outputhhh>
     b40:	d8 2f       	mov	r29, r24
     b42:	00 23       	and	r16, r16
     b44:	c9 f1       	breq	.+114    	; 0xbb8 <_Z14pin_set_outputhhh+0x8e>
     b46:	88 23       	and	r24, r24
     b48:	b9 f1       	breq	.+110    	; 0xbb8 <_Z14pin_set_outputhhh+0x8e>
     b4a:	11 30       	cpi	r17, 0x01	; 1
     b4c:	c9 f4       	brne	.+50     	; 0xb80 <_Z14pin_set_outputhhh+0x56>
     b4e:	84 e9       	ldi	r24, 0x94	; 148
     b50:	92 e0       	ldi	r25, 0x02	; 2
     b52:	9f 93       	push	r25
     b54:	8f 93       	push	r24
     b56:	1f 92       	push	r1
     b58:	cf 93       	push	r28
     b5a:	8d e9       	ldi	r24, 0x9D	; 157
     b5c:	99 e0       	ldi	r25, 0x09	; 9
     b5e:	9f 93       	push	r25
     b60:	8f 93       	push	r24
     b62:	86 e7       	ldi	r24, 0x76	; 118
     b64:	93 e0       	ldi	r25, 0x03	; 3
     b66:	9f 93       	push	r25
     b68:	8f 93       	push	r24
     b6a:	0e 94 b4 11 	call	0x2368	; 0x2368 <sprintf_P>
     b6e:	8d b7       	in	r24, 0x3d	; 61
     b70:	9e b7       	in	r25, 0x3e	; 62
     b72:	08 96       	adiw	r24, 0x08	; 8
     b74:	0f b6       	in	r0, 0x3f	; 63
     b76:	f8 94       	cli
     b78:	9e bf       	out	0x3e, r25	; 62
     b7a:	0f be       	out	0x3f, r0	; 63
     b7c:	8d bf       	out	0x3d, r24	; 61
     b7e:	18 c0       	rjmp	.+48     	; 0xbb0 <_Z14pin_set_outputhhh+0x86>
     b80:	8f e9       	ldi	r24, 0x9F	; 159
     b82:	92 e0       	ldi	r25, 0x02	; 2
     b84:	9f 93       	push	r25
     b86:	8f 93       	push	r24
     b88:	1f 92       	push	r1
     b8a:	cf 93       	push	r28
     b8c:	8d e9       	ldi	r24, 0x9D	; 157
     b8e:	99 e0       	ldi	r25, 0x09	; 9
     b90:	9f 93       	push	r25
     b92:	8f 93       	push	r24
     b94:	86 e7       	ldi	r24, 0x76	; 118
     b96:	93 e0       	ldi	r25, 0x03	; 3
     b98:	9f 93       	push	r25
     b9a:	8f 93       	push	r24
     b9c:	0e 94 b4 11 	call	0x2368	; 0x2368 <sprintf_P>
     ba0:	8d b7       	in	r24, 0x3d	; 61
     ba2:	9e b7       	in	r25, 0x3e	; 62
     ba4:	08 96       	adiw	r24, 0x08	; 8
     ba6:	0f b6       	in	r0, 0x3f	; 63
     ba8:	f8 94       	cli
     baa:	9e bf       	out	0x3e, r25	; 62
     bac:	0f be       	out	0x3f, r0	; 63
     bae:	8d bf       	out	0x3d, r24	; 61
     bb0:	86 e7       	ldi	r24, 0x76	; 118
     bb2:	93 e0       	ldi	r25, 0x03	; 3
     bb4:	0e 94 f4 10 	call	0x21e8	; 0x21e8 <_Z9uart_putsPKc>
     bb8:	8d 2f       	mov	r24, r29
     bba:	df 91       	pop	r29
     bbc:	cf 91       	pop	r28
     bbe:	1f 91       	pop	r17
     bc0:	0f 91       	pop	r16
     bc2:	08 95       	ret

00000bc4 <_Z5lighth.part.2>:
     bc4:	80 91 02 01 	lds	r24, 0x0102	; 0x800102 <_ZL10InterState>
     bc8:	41 e0       	ldi	r20, 0x01	; 1
     bca:	85 ff       	sbrs	r24, 5
     bcc:	09 c0       	rjmp	.+18     	; 0xbe0 <_Z5lighth.part.2+0x1c>
     bce:	60 e0       	ldi	r22, 0x00	; 0
     bd0:	80 e0       	ldi	r24, 0x00	; 0
     bd2:	0e 94 95 05 	call	0xb2a	; 0xb2a <_Z14pin_set_outputhhh>
     bd6:	41 e0       	ldi	r20, 0x01	; 1
     bd8:	61 e0       	ldi	r22, 0x01	; 1
     bda:	81 e0       	ldi	r24, 0x01	; 1
     bdc:	0c 94 95 05 	jmp	0xb2a	; 0xb2a <_Z14pin_set_outputhhh>
     be0:	61 e0       	ldi	r22, 0x01	; 1
     be2:	80 e0       	ldi	r24, 0x00	; 0
     be4:	0e 94 95 05 	call	0xb2a	; 0xb2a <_Z14pin_set_outputhhh>
     be8:	80 91 04 01 	lds	r24, 0x0104	; 0x800104 <_ZL26light_sec_enabled_settings>
     bec:	81 30       	cpi	r24, 0x01	; 1
     bee:	21 f4       	brne	.+8      	; 0xbf8 <_Z5lighth.part.2+0x34>
     bf0:	41 e0       	ldi	r20, 0x01	; 1
     bf2:	61 e0       	ldi	r22, 0x01	; 1
     bf4:	0e 94 95 05 	call	0xb2a	; 0xb2a <_Z14pin_set_outputhhh>
     bf8:	8b eb       	ldi	r24, 0xBB	; 187
     bfa:	99 e0       	ldi	r25, 0x09	; 9
     bfc:	0c 94 00 11 	jmp	0x2200	; 0x2200 <_Z11uart_puts_pPKc>

00000c00 <_Z15run_device_testv>:
     c00:	0f b6       	in	r0, 0x3f	; 63
     c02:	f8 94       	cli
     c04:	a8 95       	wdr
     c06:	80 91 60 00 	lds	r24, 0x0060	; 0x800060 <__TEXT_REGION_LENGTH__+0x7e0060>
     c0a:	88 61       	ori	r24, 0x18	; 24
     c0c:	80 93 60 00 	sts	0x0060, r24	; 0x800060 <__TEXT_REGION_LENGTH__+0x7e0060>
     c10:	10 92 60 00 	sts	0x0060, r1	; 0x800060 <__TEXT_REGION_LENGTH__+0x7e0060>
     c14:	0f be       	out	0x3f, r0	; 63
     c16:	8e e8       	ldi	r24, 0x8E	; 142
     c18:	99 e0       	ldi	r25, 0x09	; 9
     c1a:	0e 94 00 11 	call	0x2200	; 0x2200 <_Z11uart_puts_pPKc>
     c1e:	8d e6       	ldi	r24, 0x6D	; 109
     c20:	99 e0       	ldi	r25, 0x09	; 9
     c22:	0e 94 00 11 	call	0x2200	; 0x2200 <_Z11uart_puts_pPKc>
     c26:	41 e0       	ldi	r20, 0x01	; 1
     c28:	60 e0       	ldi	r22, 0x00	; 0
     c2a:	80 e0       	ldi	r24, 0x00	; 0
     c2c:	0e 94 95 05 	call	0xb2a	; 0xb2a <_Z14pin_set_outputhhh>
     c30:	2f ef       	ldi	r18, 0xFF	; 255
     c32:	8e e9       	ldi	r24, 0x9E	; 158
     c34:	94 e2       	ldi	r25, 0x24	; 36
     c36:	21 50       	subi	r18, 0x01	; 1
     c38:	80 40       	sbci	r24, 0x00	; 0
     c3a:	90 40       	sbci	r25, 0x00	; 0
     c3c:	e1 f7       	brne	.-8      	; 0xc36 <_Z15run_device_testv+0x36>
     c3e:	00 c0       	rjmp	.+0      	; 0xc40 <_Z15run_device_testv+0x40>
     c40:	00 00       	nop
     c42:	41 e0       	ldi	r20, 0x01	; 1
     c44:	61 e0       	ldi	r22, 0x01	; 1
     c46:	80 e0       	ldi	r24, 0x00	; 0
     c48:	0e 94 95 05 	call	0xb2a	; 0xb2a <_Z14pin_set_outputhhh>
     c4c:	2f ef       	ldi	r18, 0xFF	; 255
     c4e:	8e e9       	ldi	r24, 0x9E	; 158
     c50:	94 e2       	ldi	r25, 0x24	; 36
     c52:	21 50       	subi	r18, 0x01	; 1
     c54:	80 40       	sbci	r24, 0x00	; 0
     c56:	90 40       	sbci	r25, 0x00	; 0
     c58:	e1 f7       	brne	.-8      	; 0xc52 <_Z15run_device_testv+0x52>
     c5a:	00 c0       	rjmp	.+0      	; 0xc5c <_Z15run_device_testv+0x5c>
     c5c:	00 00       	nop
     c5e:	41 e0       	ldi	r20, 0x01	; 1
     c60:	60 e0       	ldi	r22, 0x00	; 0
     c62:	80 e0       	ldi	r24, 0x00	; 0
     c64:	0e 94 95 05 	call	0xb2a	; 0xb2a <_Z14pin_set_outputhhh>
     c68:	2f ef       	ldi	r18, 0xFF	; 255
     c6a:	8e e9       	ldi	r24, 0x9E	; 158
     c6c:	94 e2       	ldi	r25, 0x24	; 36
     c6e:	21 50       	subi	r18, 0x01	; 1
     c70:	80 40       	sbci	r24, 0x00	; 0
     c72:	90 40       	sbci	r25, 0x00	; 0
     c74:	e1 f7       	brne	.-8      	; 0xc6e <_Z15run_device_testv+0x6e>
     c76:	00 c0       	rjmp	.+0      	; 0xc78 <_Z15run_device_testv+0x78>
     c78:	00 00       	nop
     c7a:	41 e0       	ldi	r20, 0x01	; 1
     c7c:	61 e0       	ldi	r22, 0x01	; 1
     c7e:	80 e0       	ldi	r24, 0x00	; 0
     c80:	0e 94 95 05 	call	0xb2a	; 0xb2a <_Z14pin_set_outputhhh>
     c84:	2f ef       	ldi	r18, 0xFF	; 255
     c86:	8e e9       	ldi	r24, 0x9E	; 158
     c88:	94 e2       	ldi	r25, 0x24	; 36
     c8a:	21 50       	subi	r18, 0x01	; 1
     c8c:	80 40       	sbci	r24, 0x00	; 0
     c8e:	90 40       	sbci	r25, 0x00	; 0
     c90:	e1 f7       	brne	.-8      	; 0xc8a <_Z15run_device_testv+0x8a>
     c92:	00 c0       	rjmp	.+0      	; 0xc94 <_Z15run_device_testv+0x94>
     c94:	00 00       	nop
     c96:	41 e0       	ldi	r20, 0x01	; 1
     c98:	60 e0       	ldi	r22, 0x00	; 0
     c9a:	80 e0       	ldi	r24, 0x00	; 0
     c9c:	0e 94 95 05 	call	0xb2a	; 0xb2a <_Z14pin_set_outputhhh>
     ca0:	84 e5       	ldi	r24, 0x54	; 84
     ca2:	99 e0       	ldi	r25, 0x09	; 9
     ca4:	0e 94 00 11 	call	0x2200	; 0x2200 <_Z11uart_puts_pPKc>
     ca8:	41 e0       	ldi	r20, 0x01	; 1
     caa:	60 e0       	ldi	r22, 0x00	; 0
     cac:	81 e0       	ldi	r24, 0x01	; 1
     cae:	0e 94 95 05 	call	0xb2a	; 0xb2a <_Z14pin_set_outputhhh>
     cb2:	2f ef       	ldi	r18, 0xFF	; 255
     cb4:	8e e9       	ldi	r24, 0x9E	; 158
     cb6:	94 e2       	ldi	r25, 0x24	; 36
     cb8:	21 50       	subi	r18, 0x01	; 1
     cba:	80 40       	sbci	r24, 0x00	; 0
     cbc:	90 40       	sbci	r25, 0x00	; 0
     cbe:	e1 f7       	brne	.-8      	; 0xcb8 <_Z15run_device_testv+0xb8>
     cc0:	00 c0       	rjmp	.+0      	; 0xcc2 <_Z15run_device_testv+0xc2>
     cc2:	00 00       	nop
     cc4:	41 e0       	ldi	r20, 0x01	; 1
     cc6:	61 e0       	ldi	r22, 0x01	; 1
     cc8:	81 e0       	ldi	r24, 0x01	; 1
     cca:	0e 94 95 05 	call	0xb2a	; 0xb2a <_Z14pin_set_outputhhh>
     cce:	2f ef       	ldi	r18, 0xFF	; 255
     cd0:	8e e9       	ldi	r24, 0x9E	; 158
     cd2:	94 e2       	ldi	r25, 0x24	; 36
     cd4:	21 50       	subi	r18, 0x01	; 1
     cd6:	80 40       	sbci	r24, 0x00	; 0
     cd8:	90 40       	sbci	r25, 0x00	; 0
     cda:	e1 f7       	brne	.-8      	; 0xcd4 <_Z15run_device_testv+0xd4>
     cdc:	00 c0       	rjmp	.+0      	; 0xcde <_Z15run_device_testv+0xde>
     cde:	00 00       	nop
     ce0:	41 e0       	ldi	r20, 0x01	; 1
     ce2:	60 e0       	ldi	r22, 0x00	; 0
     ce4:	81 e0       	ldi	r24, 0x01	; 1
     ce6:	0e 94 95 05 	call	0xb2a	; 0xb2a <_Z14pin_set_outputhhh>
     cea:	2f ef       	ldi	r18, 0xFF	; 255
     cec:	8e e9       	ldi	r24, 0x9E	; 158
     cee:	94 e2       	ldi	r25, 0x24	; 36
     cf0:	21 50       	subi	r18, 0x01	; 1
     cf2:	80 40       	sbci	r24, 0x00	; 0
     cf4:	90 40       	sbci	r25, 0x00	; 0
     cf6:	e1 f7       	brne	.-8      	; 0xcf0 <_Z15run_device_testv+0xf0>
     cf8:	00 c0       	rjmp	.+0      	; 0xcfa <_Z15run_device_testv+0xfa>
     cfa:	00 00       	nop
     cfc:	41 e0       	ldi	r20, 0x01	; 1
     cfe:	61 e0       	ldi	r22, 0x01	; 1
     d00:	81 e0       	ldi	r24, 0x01	; 1
     d02:	0e 94 95 05 	call	0xb2a	; 0xb2a <_Z14pin_set_outputhhh>
     d06:	2f ef       	ldi	r18, 0xFF	; 255
     d08:	8e e9       	ldi	r24, 0x9E	; 158
     d0a:	94 e2       	ldi	r25, 0x24	; 36
     d0c:	21 50       	subi	r18, 0x01	; 1
     d0e:	80 40       	sbci	r24, 0x00	; 0
     d10:	90 40       	sbci	r25, 0x00	; 0
     d12:	e1 f7       	brne	.-8      	; 0xd0c <_Z15run_device_testv+0x10c>
     d14:	00 c0       	rjmp	.+0      	; 0xd16 <_Z15run_device_testv+0x116>
     d16:	00 00       	nop
     d18:	41 e0       	ldi	r20, 0x01	; 1
     d1a:	60 e0       	ldi	r22, 0x00	; 0
     d1c:	81 e0       	ldi	r24, 0x01	; 1
     d1e:	0e 94 95 05 	call	0xb2a	; 0xb2a <_Z14pin_set_outputhhh>
     d22:	82 e3       	ldi	r24, 0x32	; 50
     d24:	99 e0       	ldi	r25, 0x09	; 9
     d26:	0e 94 00 11 	call	0x2200	; 0x2200 <_Z11uart_puts_pPKc>
     d2a:	41 e0       	ldi	r20, 0x01	; 1
     d2c:	60 e0       	ldi	r22, 0x00	; 0
     d2e:	80 e0       	ldi	r24, 0x00	; 0
     d30:	0e 94 95 05 	call	0xb2a	; 0xb2a <_Z14pin_set_outputhhh>
     d34:	41 e0       	ldi	r20, 0x01	; 1
     d36:	60 e0       	ldi	r22, 0x00	; 0
     d38:	81 e0       	ldi	r24, 0x01	; 1
     d3a:	0e 94 95 05 	call	0xb2a	; 0xb2a <_Z14pin_set_outputhhh>
     d3e:	2f ef       	ldi	r18, 0xFF	; 255
     d40:	8e e9       	ldi	r24, 0x9E	; 158
     d42:	94 e2       	ldi	r25, 0x24	; 36
     d44:	21 50       	subi	r18, 0x01	; 1
     d46:	80 40       	sbci	r24, 0x00	; 0
     d48:	90 40       	sbci	r25, 0x00	; 0
     d4a:	e1 f7       	brne	.-8      	; 0xd44 <_Z15run_device_testv+0x144>
     d4c:	00 c0       	rjmp	.+0      	; 0xd4e <_Z15run_device_testv+0x14e>
     d4e:	00 00       	nop
     d50:	41 e0       	ldi	r20, 0x01	; 1
     d52:	61 e0       	ldi	r22, 0x01	; 1
     d54:	80 e0       	ldi	r24, 0x00	; 0
     d56:	0e 94 95 05 	call	0xb2a	; 0xb2a <_Z14pin_set_outputhhh>
     d5a:	41 e0       	ldi	r20, 0x01	; 1
     d5c:	61 e0       	ldi	r22, 0x01	; 1
     d5e:	81 e0       	ldi	r24, 0x01	; 1
     d60:	0e 94 95 05 	call	0xb2a	; 0xb2a <_Z14pin_set_outputhhh>
     d64:	2f ef       	ldi	r18, 0xFF	; 255
     d66:	8e e9       	ldi	r24, 0x9E	; 158
     d68:	94 e2       	ldi	r25, 0x24	; 36
     d6a:	21 50       	subi	r18, 0x01	; 1
     d6c:	80 40       	sbci	r24, 0x00	; 0
     d6e:	90 40       	sbci	r25, 0x00	; 0
     d70:	e1 f7       	brne	.-8      	; 0xd6a <_Z15run_device_testv+0x16a>
     d72:	00 c0       	rjmp	.+0      	; 0xd74 <_Z15run_device_testv+0x174>
     d74:	00 00       	nop
     d76:	41 e0       	ldi	r20, 0x01	; 1
     d78:	60 e0       	ldi	r22, 0x00	; 0
     d7a:	80 e0       	ldi	r24, 0x00	; 0
     d7c:	0e 94 95 05 	call	0xb2a	; 0xb2a <_Z14pin_set_outputhhh>
     d80:	41 e0       	ldi	r20, 0x01	; 1
     d82:	60 e0       	ldi	r22, 0x00	; 0
     d84:	81 e0       	ldi	r24, 0x01	; 1
     d86:	0e 94 95 05 	call	0xb2a	; 0xb2a <_Z14pin_set_outputhhh>
     d8a:	2f ef       	ldi	r18, 0xFF	; 255
     d8c:	8e e9       	ldi	r24, 0x9E	; 158
     d8e:	94 e2       	ldi	r25, 0x24	; 36
     d90:	21 50       	subi	r18, 0x01	; 1
     d92:	80 40       	sbci	r24, 0x00	; 0
     d94:	90 40       	sbci	r25, 0x00	; 0
     d96:	e1 f7       	brne	.-8      	; 0xd90 <_Z15run_device_testv+0x190>
     d98:	00 c0       	rjmp	.+0      	; 0xd9a <_Z15run_device_testv+0x19a>
     d9a:	00 00       	nop
     d9c:	41 e0       	ldi	r20, 0x01	; 1
     d9e:	61 e0       	ldi	r22, 0x01	; 1
     da0:	80 e0       	ldi	r24, 0x00	; 0
     da2:	0e 94 95 05 	call	0xb2a	; 0xb2a <_Z14pin_set_outputhhh>
     da6:	41 e0       	ldi	r20, 0x01	; 1
     da8:	61 e0       	ldi	r22, 0x01	; 1
     daa:	81 e0       	ldi	r24, 0x01	; 1
     dac:	0e 94 95 05 	call	0xb2a	; 0xb2a <_Z14pin_set_outputhhh>
     db0:	2f ef       	ldi	r18, 0xFF	; 255
     db2:	8e e9       	ldi	r24, 0x9E	; 158
     db4:	94 e2       	ldi	r25, 0x24	; 36
     db6:	21 50       	subi	r18, 0x01	; 1
     db8:	80 40       	sbci	r24, 0x00	; 0
     dba:	90 40       	sbci	r25, 0x00	; 0
     dbc:	e1 f7       	brne	.-8      	; 0xdb6 <_Z15run_device_testv+0x1b6>
     dbe:	00 c0       	rjmp	.+0      	; 0xdc0 <_Z15run_device_testv+0x1c0>
     dc0:	00 00       	nop
     dc2:	41 e0       	ldi	r20, 0x01	; 1
     dc4:	60 e0       	ldi	r22, 0x00	; 0
     dc6:	80 e0       	ldi	r24, 0x00	; 0
     dc8:	0e 94 95 05 	call	0xb2a	; 0xb2a <_Z14pin_set_outputhhh>
     dcc:	41 e0       	ldi	r20, 0x01	; 1
     dce:	60 e0       	ldi	r22, 0x00	; 0
     dd0:	81 e0       	ldi	r24, 0x01	; 1
     dd2:	0e 94 95 05 	call	0xb2a	; 0xb2a <_Z14pin_set_outputhhh>
     dd6:	8d e1       	ldi	r24, 0x1D	; 29
     dd8:	99 e0       	ldi	r25, 0x09	; 9
     dda:	0e 94 00 11 	call	0x2200	; 0x2200 <_Z11uart_puts_pPKc>
     dde:	41 e0       	ldi	r20, 0x01	; 1
     de0:	60 e0       	ldi	r22, 0x00	; 0
     de2:	82 e0       	ldi	r24, 0x02	; 2
     de4:	0e 94 95 05 	call	0xb2a	; 0xb2a <_Z14pin_set_outputhhh>
     de8:	2f ef       	ldi	r18, 0xFF	; 255
     dea:	8e e9       	ldi	r24, 0x9E	; 158
     dec:	94 e2       	ldi	r25, 0x24	; 36
     dee:	21 50       	subi	r18, 0x01	; 1
     df0:	80 40       	sbci	r24, 0x00	; 0
     df2:	90 40       	sbci	r25, 0x00	; 0
     df4:	e1 f7       	brne	.-8      	; 0xdee <_Z15run_device_testv+0x1ee>
     df6:	00 c0       	rjmp	.+0      	; 0xdf8 <_Z15run_device_testv+0x1f8>
     df8:	00 00       	nop
     dfa:	41 e0       	ldi	r20, 0x01	; 1
     dfc:	61 e0       	ldi	r22, 0x01	; 1
     dfe:	82 e0       	ldi	r24, 0x02	; 2
     e00:	0e 94 95 05 	call	0xb2a	; 0xb2a <_Z14pin_set_outputhhh>
     e04:	2f ef       	ldi	r18, 0xFF	; 255
     e06:	8a e1       	ldi	r24, 0x1A	; 26
     e08:	97 eb       	ldi	r25, 0xB7	; 183
     e0a:	21 50       	subi	r18, 0x01	; 1
     e0c:	80 40       	sbci	r24, 0x00	; 0
     e0e:	90 40       	sbci	r25, 0x00	; 0
     e10:	e1 f7       	brne	.-8      	; 0xe0a <_Z15run_device_testv+0x20a>
     e12:	00 c0       	rjmp	.+0      	; 0xe14 <_Z15run_device_testv+0x214>
     e14:	00 00       	nop
     e16:	41 e0       	ldi	r20, 0x01	; 1
     e18:	60 e0       	ldi	r22, 0x00	; 0
     e1a:	82 e0       	ldi	r24, 0x02	; 2
     e1c:	0e 94 95 05 	call	0xb2a	; 0xb2a <_Z14pin_set_outputhhh>
     e20:	2f ef       	ldi	r18, 0xFF	; 255
     e22:	8a e1       	ldi	r24, 0x1A	; 26
     e24:	97 eb       	ldi	r25, 0xB7	; 183
     e26:	21 50       	subi	r18, 0x01	; 1
     e28:	80 40       	sbci	r24, 0x00	; 0
     e2a:	90 40       	sbci	r25, 0x00	; 0
     e2c:	e1 f7       	brne	.-8      	; 0xe26 <_Z15run_device_testv+0x226>
     e2e:	00 c0       	rjmp	.+0      	; 0xe30 <_Z15run_device_testv+0x230>
     e30:	00 00       	nop
     e32:	41 e0       	ldi	r20, 0x01	; 1
     e34:	61 e0       	ldi	r22, 0x01	; 1
     e36:	82 e0       	ldi	r24, 0x02	; 2
     e38:	0e 94 95 05 	call	0xb2a	; 0xb2a <_Z14pin_set_outputhhh>
     e3c:	2f ef       	ldi	r18, 0xFF	; 255
     e3e:	8a e1       	ldi	r24, 0x1A	; 26
     e40:	97 eb       	ldi	r25, 0xB7	; 183
     e42:	21 50       	subi	r18, 0x01	; 1
     e44:	80 40       	sbci	r24, 0x00	; 0
     e46:	90 40       	sbci	r25, 0x00	; 0
     e48:	e1 f7       	brne	.-8      	; 0xe42 <_Z15run_device_testv+0x242>
     e4a:	00 c0       	rjmp	.+0      	; 0xe4c <_Z15run_device_testv+0x24c>
     e4c:	00 00       	nop
     e4e:	41 e0       	ldi	r20, 0x01	; 1
     e50:	60 e0       	ldi	r22, 0x00	; 0
     e52:	82 e0       	ldi	r24, 0x02	; 2
     e54:	0e 94 95 05 	call	0xb2a	; 0xb2a <_Z14pin_set_outputhhh>
     e58:	8e e0       	ldi	r24, 0x0E	; 14
     e5a:	99 e0       	ldi	r25, 0x09	; 9
     e5c:	0e 94 00 11 	call	0x2200	; 0x2200 <_Z11uart_puts_pPKc>
     e60:	41 e0       	ldi	r20, 0x01	; 1
     e62:	60 e0       	ldi	r22, 0x00	; 0
     e64:	83 e0       	ldi	r24, 0x03	; 3
     e66:	0e 94 95 05 	call	0xb2a	; 0xb2a <_Z14pin_set_outputhhh>
     e6a:	2f ef       	ldi	r18, 0xFF	; 255
     e6c:	8e e9       	ldi	r24, 0x9E	; 158
     e6e:	94 e2       	ldi	r25, 0x24	; 36
     e70:	21 50       	subi	r18, 0x01	; 1
     e72:	80 40       	sbci	r24, 0x00	; 0
     e74:	90 40       	sbci	r25, 0x00	; 0
     e76:	e1 f7       	brne	.-8      	; 0xe70 <_Z15run_device_testv+0x270>
     e78:	00 c0       	rjmp	.+0      	; 0xe7a <_Z15run_device_testv+0x27a>
     e7a:	00 00       	nop
     e7c:	41 e0       	ldi	r20, 0x01	; 1
     e7e:	61 e0       	ldi	r22, 0x01	; 1
     e80:	83 e0       	ldi	r24, 0x03	; 3
     e82:	0e 94 95 05 	call	0xb2a	; 0xb2a <_Z14pin_set_outputhhh>
     e86:	2f ef       	ldi	r18, 0xFF	; 255
     e88:	8a e1       	ldi	r24, 0x1A	; 26
     e8a:	97 eb       	ldi	r25, 0xB7	; 183
     e8c:	21 50       	subi	r18, 0x01	; 1
     e8e:	80 40       	sbci	r24, 0x00	; 0
     e90:	90 40       	sbci	r25, 0x00	; 0
     e92:	e1 f7       	brne	.-8      	; 0xe8c <_Z15run_device_testv+0x28c>
     e94:	00 c0       	rjmp	.+0      	; 0xe96 <_Z15run_device_testv+0x296>
     e96:	00 00       	nop
     e98:	41 e0       	ldi	r20, 0x01	; 1
     e9a:	60 e0       	ldi	r22, 0x00	; 0
     e9c:	83 e0       	ldi	r24, 0x03	; 3
     e9e:	0e 94 95 05 	call	0xb2a	; 0xb2a <_Z14pin_set_outputhhh>
     ea2:	2f ef       	ldi	r18, 0xFF	; 255
     ea4:	8a e1       	ldi	r24, 0x1A	; 26
     ea6:	97 eb       	ldi	r25, 0xB7	; 183
     ea8:	21 50       	subi	r18, 0x01	; 1
     eaa:	80 40       	sbci	r24, 0x00	; 0
     eac:	90 40       	sbci	r25, 0x00	; 0
     eae:	e1 f7       	brne	.-8      	; 0xea8 <_Z15run_device_testv+0x2a8>
     eb0:	00 c0       	rjmp	.+0      	; 0xeb2 <_Z15run_device_testv+0x2b2>
     eb2:	00 00       	nop
     eb4:	41 e0       	ldi	r20, 0x01	; 1
     eb6:	61 e0       	ldi	r22, 0x01	; 1
     eb8:	83 e0       	ldi	r24, 0x03	; 3
     eba:	0e 94 95 05 	call	0xb2a	; 0xb2a <_Z14pin_set_outputhhh>
     ebe:	2f ef       	ldi	r18, 0xFF	; 255
     ec0:	8a e1       	ldi	r24, 0x1A	; 26
     ec2:	97 eb       	ldi	r25, 0xB7	; 183
     ec4:	21 50       	subi	r18, 0x01	; 1
     ec6:	80 40       	sbci	r24, 0x00	; 0
     ec8:	90 40       	sbci	r25, 0x00	; 0
     eca:	e1 f7       	brne	.-8      	; 0xec4 <_Z15run_device_testv+0x2c4>
     ecc:	00 c0       	rjmp	.+0      	; 0xece <_Z15run_device_testv+0x2ce>
     ece:	00 00       	nop
     ed0:	41 e0       	ldi	r20, 0x01	; 1
     ed2:	60 e0       	ldi	r22, 0x00	; 0
     ed4:	83 e0       	ldi	r24, 0x03	; 3
     ed6:	0e 94 95 05 	call	0xb2a	; 0xb2a <_Z14pin_set_outputhhh>
     eda:	81 e8       	ldi	r24, 0x81	; 129
     edc:	99 e0       	ldi	r25, 0x09	; 9
     ede:	0e 94 00 11 	call	0x2200	; 0x2200 <_Z11uart_puts_pPKc>
     ee2:	9f e0       	ldi	r25, 0x0F	; 15
     ee4:	88 e1       	ldi	r24, 0x18	; 24
     ee6:	0f b6       	in	r0, 0x3f	; 63
     ee8:	f8 94       	cli
     eea:	a8 95       	wdr
     eec:	80 93 60 00 	sts	0x0060, r24	; 0x800060 <__TEXT_REGION_LENGTH__+0x7e0060>
     ef0:	0f be       	out	0x3f, r0	; 63
     ef2:	90 93 60 00 	sts	0x0060, r25	; 0x800060 <__TEXT_REGION_LENGTH__+0x7e0060>
     ef6:	08 95       	ret

00000ef8 <_Z22check_relax_light_modeh>:
     ef8:	90 91 75 03 	lds	r25, 0x0375	; 0x800375 <_ZL28light_relax_enabled_settings>
     efc:	91 30       	cpi	r25, 0x01	; 1
     efe:	09 f0       	breq	.+2      	; 0xf02 <_Z22check_relax_light_modeh+0xa>
     f00:	50 c0       	rjmp	.+160    	; 0xfa2 <_Z22check_relax_light_modeh+0xaa>
     f02:	90 91 04 01 	lds	r25, 0x0104	; 0x800104 <_ZL26light_sec_enabled_settings>
     f06:	91 30       	cpi	r25, 0x01	; 1
     f08:	09 f0       	breq	.+2      	; 0xf0c <_Z22check_relax_light_modeh+0x14>
     f0a:	4b c0       	rjmp	.+150    	; 0xfa2 <_Z22check_relax_light_modeh+0xaa>
     f0c:	81 30       	cpi	r24, 0x01	; 1
     f0e:	59 f5       	brne	.+86     	; 0xf66 <_Z22check_relax_light_modeh+0x6e>
     f10:	33 9b       	sbis	0x06, 3	; 6
     f12:	1c c0       	rjmp	.+56     	; 0xf4c <_Z22check_relax_light_modeh+0x54>
     f14:	80 91 02 01 	lds	r24, 0x0102	; 0x800102 <_ZL10InterState>
     f18:	85 ff       	sbrs	r24, 5
     f1a:	09 c0       	rjmp	.+18     	; 0xf2e <_Z22check_relax_light_modeh+0x36>
     f1c:	80 91 02 01 	lds	r24, 0x0102	; 0x800102 <_ZL10InterState>
     f20:	8f 7d       	andi	r24, 0xDF	; 223
     f22:	80 93 02 01 	sts	0x0102, r24	; 0x800102 <_ZL10InterState>
     f26:	80 ed       	ldi	r24, 0xD0	; 208
     f28:	99 e0       	ldi	r25, 0x09	; 9
     f2a:	0e 94 00 11 	call	0x2200	; 0x2200 <_Z11uart_puts_pPKc>
     f2e:	60 91 06 01 	lds	r22, 0x0106	; 0x800106 <_ZL20out_pin_level_config>
     f32:	80 e0       	ldi	r24, 0x00	; 0
     f34:	0e 94 25 10 	call	0x204a	; 0x204a <_Z15check_output_onhh>
     f38:	81 11       	cpse	r24, r1
     f3a:	31 c0       	rjmp	.+98     	; 0xf9e <_Z22check_relax_light_modeh+0xa6>
     f3c:	60 91 06 01 	lds	r22, 0x0106	; 0x800106 <_ZL20out_pin_level_config>
     f40:	81 e0       	ldi	r24, 0x01	; 1
     f42:	0e 94 25 10 	call	0x204a	; 0x204a <_Z15check_output_onhh>
     f46:	81 11       	cpse	r24, r1
     f48:	2a c0       	rjmp	.+84     	; 0xf9e <_Z22check_relax_light_modeh+0xa6>
     f4a:	08 95       	ret
     f4c:	80 91 58 03 	lds	r24, 0x0358	; 0x800358 <_ZL24RelaxLightCommandCounter>
     f50:	81 11       	cpse	r24, r1
     f52:	03 c0       	rjmp	.+6      	; 0xf5a <_Z22check_relax_light_modeh+0x62>
     f54:	84 e1       	ldi	r24, 0x14	; 20
     f56:	80 93 57 03 	sts	0x0357, r24	; 0x800357 <_ZL25relax_light_timer_counter>
     f5a:	80 91 58 03 	lds	r24, 0x0358	; 0x800358 <_ZL24RelaxLightCommandCounter>
     f5e:	8f 5f       	subi	r24, 0xFF	; 255
     f60:	80 93 58 03 	sts	0x0358, r24	; 0x800358 <_ZL24RelaxLightCommandCounter>
     f64:	08 95       	ret
     f66:	80 91 58 03 	lds	r24, 0x0358	; 0x800358 <_ZL24RelaxLightCommandCounter>
     f6a:	82 30       	cpi	r24, 0x02	; 2
     f6c:	48 f0       	brcs	.+18     	; 0xf80 <_Z22check_relax_light_modeh+0x88>
     f6e:	80 91 02 01 	lds	r24, 0x0102	; 0x800102 <_ZL10InterState>
     f72:	80 62       	ori	r24, 0x20	; 32
     f74:	80 93 02 01 	sts	0x0102, r24	; 0x800102 <_ZL10InterState>
     f78:	83 ef       	ldi	r24, 0xF3	; 243
     f7a:	99 e0       	ldi	r25, 0x09	; 9
     f7c:	0e 94 00 11 	call	0x2200	; 0x2200 <_Z11uart_puts_pPKc>
     f80:	10 92 58 03 	sts	0x0358, r1	; 0x800358 <_ZL24RelaxLightCommandCounter>
     f84:	60 91 06 01 	lds	r22, 0x0106	; 0x800106 <_ZL20out_pin_level_config>
     f88:	80 e0       	ldi	r24, 0x00	; 0
     f8a:	0e 94 25 10 	call	0x204a	; 0x204a <_Z15check_output_onhh>
     f8e:	81 11       	cpse	r24, r1
     f90:	06 c0       	rjmp	.+12     	; 0xf9e <_Z22check_relax_light_modeh+0xa6>
     f92:	60 91 06 01 	lds	r22, 0x0106	; 0x800106 <_ZL20out_pin_level_config>
     f96:	81 e0       	ldi	r24, 0x01	; 1
     f98:	0e 94 25 10 	call	0x204a	; 0x204a <_Z15check_output_onhh>
     f9c:	81 11       	cpse	r24, r1
     f9e:	0c 94 e2 05 	jmp	0xbc4	; 0xbc4 <_Z5lighth.part.2>
     fa2:	08 95       	ret

00000fa4 <_Z16set_config_valuePhhhhh>:
     fa4:	0f 93       	push	r16
     fa6:	fc 01       	movw	r30, r24
     fa8:	90 81       	ld	r25, Z
     faa:	62 17       	cp	r22, r18
     fac:	10 f0       	brcs	.+4      	; 0xfb2 <_Z16set_config_valuePhhhhh+0xe>
     fae:	06 17       	cp	r16, r22
     fb0:	20 f4       	brcc	.+8      	; 0xfba <_Z16set_config_valuePhhhhh+0x16>
     fb2:	44 23       	and	r20, r20
     fb4:	19 f0       	breq	.+6      	; 0xfbc <_Z16set_config_valuePhhhhh+0x18>
     fb6:	40 83       	st	Z, r20
     fb8:	01 c0       	rjmp	.+2      	; 0xfbc <_Z16set_config_valuePhhhhh+0x18>
     fba:	60 83       	st	Z, r22
     fbc:	81 e0       	ldi	r24, 0x01	; 1
     fbe:	20 81       	ld	r18, Z
     fc0:	29 13       	cpse	r18, r25
     fc2:	01 c0       	rjmp	.+2      	; 0xfc6 <_Z16set_config_valuePhhhhh+0x22>
     fc4:	80 e0       	ldi	r24, 0x00	; 0
     fc6:	0f 91       	pop	r16
     fc8:	08 95       	ret

00000fca <_Z24set_out_pin_level_confighh>:
     fca:	90 91 06 01 	lds	r25, 0x0106	; 0x800106 <_ZL20out_pin_level_config>
     fce:	80 93 06 01 	sts	0x0106, r24	; 0x800106 <_ZL20out_pin_level_config>
     fd2:	89 17       	cp	r24, r25
     fd4:	39 f0       	breq	.+14     	; 0xfe4 <_Z24set_out_pin_level_confighh+0x1a>
     fd6:	66 23       	and	r22, r22
     fd8:	29 f0       	breq	.+10     	; 0xfe4 <_Z24set_out_pin_level_confighh+0x1a>
     fda:	68 2f       	mov	r22, r24
     fdc:	8d e0       	ldi	r24, 0x0D	; 13
     fde:	90 e0       	ldi	r25, 0x00	; 0
     fe0:	0c 94 7f 14 	jmp	0x28fe	; 0x28fe <eeprom_update_byte>
     fe4:	08 95       	ret

00000fe6 <_Z27set_investigation_wait_timehh>:
     fe6:	90 91 5e 03 	lds	r25, 0x035E	; 0x80035e <_ZL23investigation_wait_time>
     fea:	2f ef       	ldi	r18, 0xFF	; 255
     fec:	28 0f       	add	r18, r24
     fee:	2a 3f       	cpi	r18, 0xFA	; 250
     ff0:	08 f0       	brcs	.+2      	; 0xff4 <_Z27set_investigation_wait_timehh+0xe>
     ff2:	8a e0       	ldi	r24, 0x0A	; 10
     ff4:	80 93 5e 03 	sts	0x035E, r24	; 0x80035e <_ZL23investigation_wait_time>
     ff8:	80 91 5e 03 	lds	r24, 0x035E	; 0x80035e <_ZL23investigation_wait_time>
     ffc:	98 17       	cp	r25, r24
     ffe:	39 f0       	breq	.+14     	; 0x100e <_Z27set_investigation_wait_timehh+0x28>
    1000:	66 23       	and	r22, r22
    1002:	29 f0       	breq	.+10     	; 0x100e <_Z27set_investigation_wait_timehh+0x28>
    1004:	68 2f       	mov	r22, r24
    1006:	81 e0       	ldi	r24, 0x01	; 1
    1008:	90 e0       	ldi	r25, 0x00	; 0
    100a:	0c 94 7f 14 	jmp	0x28fe	; 0x28fe <eeprom_update_byte>
    100e:	08 95       	ret

00001010 <_Z25set_somebody_in_wait_timehh>:
    1010:	90 91 5d 03 	lds	r25, 0x035D	; 0x80035d <_ZL21somebody_in_wait_time>
    1014:	2f ef       	ldi	r18, 0xFF	; 255
    1016:	28 0f       	add	r18, r24
    1018:	2a 3f       	cpi	r18, 0xFA	; 250
    101a:	08 f0       	brcs	.+2      	; 0x101e <_Z25set_somebody_in_wait_timehh+0xe>
    101c:	8a e0       	ldi	r24, 0x0A	; 10
    101e:	80 93 5d 03 	sts	0x035D, r24	; 0x80035d <_ZL21somebody_in_wait_time>
    1022:	80 91 5d 03 	lds	r24, 0x035D	; 0x80035d <_ZL21somebody_in_wait_time>
    1026:	98 17       	cp	r25, r24
    1028:	39 f0       	breq	.+14     	; 0x1038 <_Z25set_somebody_in_wait_timehh+0x28>
    102a:	66 23       	and	r22, r22
    102c:	29 f0       	breq	.+10     	; 0x1038 <_Z25set_somebody_in_wait_timehh+0x28>
    102e:	68 2f       	mov	r22, r24
    1030:	80 e0       	ldi	r24, 0x00	; 0
    1032:	90 e0       	ldi	r25, 0x00	; 0
    1034:	0c 94 7f 14 	jmp	0x28fe	; 0x28fe <eeprom_update_byte>
    1038:	08 95       	ret

0000103a <_Z17set_max_vent_timehh>:
    103a:	90 91 64 03 	lds	r25, 0x0364	; 0x800364 <vent_max_time_settings>
    103e:	81 11       	cpse	r24, r1
    1040:	01 c0       	rjmp	.+2      	; 0x1044 <_Z17set_max_vent_timehh+0xa>
    1042:	8e e1       	ldi	r24, 0x1E	; 30
    1044:	80 93 64 03 	sts	0x0364, r24	; 0x800364 <vent_max_time_settings>
    1048:	80 91 64 03 	lds	r24, 0x0364	; 0x800364 <vent_max_time_settings>
    104c:	98 17       	cp	r25, r24
    104e:	39 f0       	breq	.+14     	; 0x105e <_Z17set_max_vent_timehh+0x24>
    1050:	66 23       	and	r22, r22
    1052:	29 f0       	breq	.+10     	; 0x105e <_Z17set_max_vent_timehh+0x24>
    1054:	68 2f       	mov	r22, r24
    1056:	85 e0       	ldi	r24, 0x05	; 5
    1058:	90 e0       	ldi	r25, 0x00	; 0
    105a:	0c 94 7f 14 	jmp	0x28fe	; 0x28fe <eeprom_update_byte>
    105e:	08 95       	ret

00001060 <_Z17set_min_vent_timehh>:
    1060:	90 91 63 03 	lds	r25, 0x0363	; 0x800363 <vent_min_time_settings>
    1064:	81 11       	cpse	r24, r1
    1066:	01 c0       	rjmp	.+2      	; 0x106a <_Z17set_min_vent_timehh+0xa>
    1068:	82 e0       	ldi	r24, 0x02	; 2
    106a:	80 93 63 03 	sts	0x0363, r24	; 0x800363 <vent_min_time_settings>
    106e:	80 91 63 03 	lds	r24, 0x0363	; 0x800363 <vent_min_time_settings>
    1072:	98 17       	cp	r25, r24
    1074:	39 f0       	breq	.+14     	; 0x1084 <_Z17set_min_vent_timehh+0x24>
    1076:	66 23       	and	r22, r22
    1078:	29 f0       	breq	.+10     	; 0x1084 <_Z17set_min_vent_timehh+0x24>
    107a:	68 2f       	mov	r22, r24
    107c:	84 e0       	ldi	r24, 0x04	; 4
    107e:	90 e0       	ldi	r25, 0x00	; 0
    1080:	0c 94 7f 14 	jmp	0x28fe	; 0x28fe <eeprom_update_byte>
    1084:	08 95       	ret

00001086 <_Z24set_min_vent_temperaturehh>:
    1086:	90 91 62 03 	lds	r25, 0x0362	; 0x800362 <vent_min_temp_settings>
    108a:	8f 31       	cpi	r24, 0x1F	; 31
    108c:	08 f0       	brcs	.+2      	; 0x1090 <_Z24set_min_vent_temperaturehh+0xa>
    108e:	82 e1       	ldi	r24, 0x12	; 18
    1090:	80 93 62 03 	sts	0x0362, r24	; 0x800362 <vent_min_temp_settings>
    1094:	80 91 62 03 	lds	r24, 0x0362	; 0x800362 <vent_min_temp_settings>
    1098:	98 17       	cp	r25, r24
    109a:	39 f0       	breq	.+14     	; 0x10aa <_Z24set_min_vent_temperaturehh+0x24>
    109c:	66 23       	and	r22, r22
    109e:	29 f0       	breq	.+10     	; 0x10aa <_Z24set_min_vent_temperaturehh+0x24>
    10a0:	68 2f       	mov	r22, r24
    10a2:	83 e0       	ldi	r24, 0x03	; 3
    10a4:	90 e0       	ldi	r25, 0x00	; 0
    10a6:	0c 94 7f 14 	jmp	0x28fe	; 0x28fe <eeprom_update_byte>
    10aa:	08 95       	ret

000010ac <_Z14set_vent_afterhh>:
    10ac:	90 91 61 03 	lds	r25, 0x0361	; 0x800361 <vent_after_settings>
    10b0:	82 30       	cpi	r24, 0x02	; 2
    10b2:	10 f4       	brcc	.+4      	; 0x10b8 <_Z14set_vent_afterhh+0xc>
    10b4:	80 93 61 03 	sts	0x0361, r24	; 0x800361 <vent_after_settings>
    10b8:	80 91 61 03 	lds	r24, 0x0361	; 0x800361 <vent_after_settings>
    10bc:	98 17       	cp	r25, r24
    10be:	39 f0       	breq	.+14     	; 0x10ce <_Z14set_vent_afterhh+0x22>
    10c0:	66 23       	and	r22, r22
    10c2:	29 f0       	breq	.+10     	; 0x10ce <_Z14set_vent_afterhh+0x22>
    10c4:	68 2f       	mov	r22, r24
    10c6:	82 e0       	ldi	r24, 0x02	; 2
    10c8:	90 e0       	ldi	r25, 0x00	; 0
    10ca:	0c 94 7f 14 	jmp	0x28fe	; 0x28fe <eeprom_update_byte>
    10ce:	08 95       	ret

000010d0 <_Z16set_vent_enabledhh>:
    10d0:	90 91 65 03 	lds	r25, 0x0365	; 0x800365 <vent_enabled_settings>
    10d4:	82 30       	cpi	r24, 0x02	; 2
    10d6:	08 f0       	brcs	.+2      	; 0x10da <_Z16set_vent_enabledhh+0xa>
    10d8:	81 e0       	ldi	r24, 0x01	; 1
    10da:	80 93 65 03 	sts	0x0365, r24	; 0x800365 <vent_enabled_settings>
    10de:	80 91 65 03 	lds	r24, 0x0365	; 0x800365 <vent_enabled_settings>
    10e2:	98 17       	cp	r25, r24
    10e4:	39 f0       	breq	.+14     	; 0x10f4 <_Z16set_vent_enabledhh+0x24>
    10e6:	66 23       	and	r22, r22
    10e8:	29 f0       	breq	.+10     	; 0x10f4 <_Z16set_vent_enabledhh+0x24>
    10ea:	68 2f       	mov	r22, r24
    10ec:	86 e0       	ldi	r24, 0x06	; 6
    10ee:	90 e0       	ldi	r25, 0x00	; 0
    10f0:	0c 94 7f 14 	jmp	0x28fe	; 0x28fe <eeprom_update_byte>
    10f4:	08 95       	ret

000010f6 <_Z29set_humidity_vent_on_settingshh>:
    10f6:	90 91 6c 03 	lds	r25, 0x036C	; 0x80036c <_ZL22humidity_vent_on_value>
    10fa:	2e ec       	ldi	r18, 0xCE	; 206
    10fc:	28 0f       	add	r18, r24
    10fe:	23 33       	cpi	r18, 0x33	; 51
    1100:	08 f0       	brcs	.+2      	; 0x1104 <_Z29set_humidity_vent_on_settingshh+0xe>
    1102:	80 e5       	ldi	r24, 0x50	; 80
    1104:	80 93 6c 03 	sts	0x036C, r24	; 0x80036c <_ZL22humidity_vent_on_value>
    1108:	80 91 6c 03 	lds	r24, 0x036C	; 0x80036c <_ZL22humidity_vent_on_value>
    110c:	98 17       	cp	r25, r24
    110e:	39 f0       	breq	.+14     	; 0x111e <_Z29set_humidity_vent_on_settingshh+0x28>
    1110:	66 23       	and	r22, r22
    1112:	29 f0       	breq	.+10     	; 0x111e <_Z29set_humidity_vent_on_settingshh+0x28>
    1114:	68 2f       	mov	r22, r24
    1116:	88 e0       	ldi	r24, 0x08	; 8
    1118:	90 e0       	ldi	r25, 0x00	; 0
    111a:	0c 94 7f 14 	jmp	0x28fe	; 0x28fe <eeprom_update_byte>
    111e:	08 95       	ret

00001120 <_Z30set_humidity_vent_off_settingshh>:
    1120:	90 91 6b 03 	lds	r25, 0x036B	; 0x80036b <_ZL23humidity_vent_off_value>
    1124:	2e ec       	ldi	r18, 0xCE	; 206
    1126:	28 0f       	add	r18, r24
    1128:	23 33       	cpi	r18, 0x33	; 51
    112a:	08 f0       	brcs	.+2      	; 0x112e <_Z30set_humidity_vent_off_settingshh+0xe>
    112c:	8b e4       	ldi	r24, 0x4B	; 75
    112e:	80 93 6b 03 	sts	0x036B, r24	; 0x80036b <_ZL23humidity_vent_off_value>
    1132:	80 91 6b 03 	lds	r24, 0x036B	; 0x80036b <_ZL23humidity_vent_off_value>
    1136:	98 17       	cp	r25, r24
    1138:	39 f0       	breq	.+14     	; 0x1148 <_Z30set_humidity_vent_off_settingshh+0x28>
    113a:	66 23       	and	r22, r22
    113c:	29 f0       	breq	.+10     	; 0x1148 <_Z30set_humidity_vent_off_settingshh+0x28>
    113e:	68 2f       	mov	r22, r24
    1140:	87 e0       	ldi	r24, 0x07	; 7
    1142:	90 e0       	ldi	r25, 0x00	; 0
    1144:	0c 94 7f 14 	jmp	0x28fe	; 0x28fe <eeprom_update_byte>
    1148:	08 95       	ret

0000114a <_Z17set_music_enabledhh>:
    114a:	90 91 03 01 	lds	r25, 0x0103	; 0x800103 <_ZL22music_enabled_settings>
    114e:	82 30       	cpi	r24, 0x02	; 2
    1150:	08 f0       	brcs	.+2      	; 0x1154 <_Z17set_music_enabledhh+0xa>
    1152:	81 e0       	ldi	r24, 0x01	; 1
    1154:	80 93 03 01 	sts	0x0103, r24	; 0x800103 <_ZL22music_enabled_settings>
    1158:	80 91 03 01 	lds	r24, 0x0103	; 0x800103 <_ZL22music_enabled_settings>
    115c:	98 17       	cp	r25, r24
    115e:	39 f0       	breq	.+14     	; 0x116e <_Z17set_music_enabledhh+0x24>
    1160:	66 23       	and	r22, r22
    1162:	29 f0       	breq	.+10     	; 0x116e <_Z17set_music_enabledhh+0x24>
    1164:	68 2f       	mov	r22, r24
    1166:	89 e0       	ldi	r24, 0x09	; 9
    1168:	90 e0       	ldi	r25, 0x00	; 0
    116a:	0c 94 7f 14 	jmp	0x28fe	; 0x28fe <eeprom_update_byte>
    116e:	08 95       	ret

00001170 <_Z22set_light_main_enabledhh>:
    1170:	90 91 05 01 	lds	r25, 0x0105	; 0x800105 <_ZL27light_main_enabled_settings>
    1174:	82 30       	cpi	r24, 0x02	; 2
    1176:	08 f0       	brcs	.+2      	; 0x117a <_Z22set_light_main_enabledhh+0xa>
    1178:	81 e0       	ldi	r24, 0x01	; 1
    117a:	80 93 05 01 	sts	0x0105, r24	; 0x800105 <_ZL27light_main_enabled_settings>
    117e:	80 91 05 01 	lds	r24, 0x0105	; 0x800105 <_ZL27light_main_enabled_settings>
    1182:	98 17       	cp	r25, r24
    1184:	39 f0       	breq	.+14     	; 0x1194 <_Z22set_light_main_enabledhh+0x24>
    1186:	66 23       	and	r22, r22
    1188:	29 f0       	breq	.+10     	; 0x1194 <_Z22set_light_main_enabledhh+0x24>
    118a:	68 2f       	mov	r22, r24
    118c:	8c e0       	ldi	r24, 0x0C	; 12
    118e:	90 e0       	ldi	r25, 0x00	; 0
    1190:	0c 94 7f 14 	jmp	0x28fe	; 0x28fe <eeprom_update_byte>
    1194:	08 95       	ret

00001196 <_Z21set_light_sec_enabledhh>:
    1196:	90 91 04 01 	lds	r25, 0x0104	; 0x800104 <_ZL26light_sec_enabled_settings>
    119a:	82 30       	cpi	r24, 0x02	; 2
    119c:	08 f0       	brcs	.+2      	; 0x11a0 <_Z21set_light_sec_enabledhh+0xa>
    119e:	81 e0       	ldi	r24, 0x01	; 1
    11a0:	80 93 04 01 	sts	0x0104, r24	; 0x800104 <_ZL26light_sec_enabled_settings>
    11a4:	80 91 04 01 	lds	r24, 0x0104	; 0x800104 <_ZL26light_sec_enabled_settings>
    11a8:	98 17       	cp	r25, r24
    11aa:	39 f0       	breq	.+14     	; 0x11ba <_Z21set_light_sec_enabledhh+0x24>
    11ac:	66 23       	and	r22, r22
    11ae:	29 f0       	breq	.+10     	; 0x11ba <_Z21set_light_sec_enabledhh+0x24>
    11b0:	68 2f       	mov	r22, r24
    11b2:	8b e0       	ldi	r24, 0x0B	; 11
    11b4:	90 e0       	ldi	r25, 0x00	; 0
    11b6:	0c 94 7f 14 	jmp	0x28fe	; 0x28fe <eeprom_update_byte>
    11ba:	08 95       	ret

000011bc <_Z23set_light_relax_enabledhh>:
    11bc:	90 91 75 03 	lds	r25, 0x0375	; 0x800375 <_ZL28light_relax_enabled_settings>
    11c0:	82 30       	cpi	r24, 0x02	; 2
    11c2:	10 f4       	brcc	.+4      	; 0x11c8 <_Z23set_light_relax_enabledhh+0xc>
    11c4:	80 93 75 03 	sts	0x0375, r24	; 0x800375 <_ZL28light_relax_enabled_settings>
    11c8:	80 91 75 03 	lds	r24, 0x0375	; 0x800375 <_ZL28light_relax_enabled_settings>
    11cc:	98 17       	cp	r25, r24
    11ce:	39 f0       	breq	.+14     	; 0x11de <_Z23set_light_relax_enabledhh+0x22>
    11d0:	66 23       	and	r22, r22
    11d2:	29 f0       	breq	.+10     	; 0x11de <_Z23set_light_relax_enabledhh+0x22>
    11d4:	68 2f       	mov	r22, r24
    11d6:	8a e0       	ldi	r24, 0x0A	; 10
    11d8:	90 e0       	ldi	r25, 0x00	; 0
    11da:	0c 94 7f 14 	jmp	0x28fe	; 0x28fe <eeprom_update_byte>
    11de:	08 95       	ret

000011e0 <_Z22init_humidity_settingsv>:
    11e0:	0f 93       	push	r16
    11e2:	88 e0       	ldi	r24, 0x08	; 8
    11e4:	90 e0       	ldi	r25, 0x00	; 0
    11e6:	0e 94 77 14 	call	0x28ee	; 0x28ee <eeprom_read_byte>
    11ea:	04 e6       	ldi	r16, 0x64	; 100
    11ec:	22 e3       	ldi	r18, 0x32	; 50
    11ee:	40 e5       	ldi	r20, 0x50	; 80
    11f0:	68 2f       	mov	r22, r24
    11f2:	8c e6       	ldi	r24, 0x6C	; 108
    11f4:	93 e0       	ldi	r25, 0x03	; 3
    11f6:	0e 94 d2 07 	call	0xfa4	; 0xfa4 <_Z16set_config_valuePhhhhh>
    11fa:	87 e0       	ldi	r24, 0x07	; 7
    11fc:	90 e0       	ldi	r25, 0x00	; 0
    11fe:	0e 94 77 14 	call	0x28ee	; 0x28ee <eeprom_read_byte>
    1202:	22 e3       	ldi	r18, 0x32	; 50
    1204:	4b e4       	ldi	r20, 0x4B	; 75
    1206:	68 2f       	mov	r22, r24
    1208:	8b e6       	ldi	r24, 0x6B	; 107
    120a:	93 e0       	ldi	r25, 0x03	; 3
    120c:	0e 94 d2 07 	call	0xfa4	; 0xfa4 <_Z16set_config_valuePhhhhh>
    1210:	e6 e6       	ldi	r30, 0x66	; 102
    1212:	f3 e0       	ldi	r31, 0x03	; 3
    1214:	14 82       	std	Z+4, r1	; 0x04
    1216:	10 82       	st	Z, r1
    1218:	12 82       	std	Z+2, r1	; 0x02
    121a:	11 82       	std	Z+1, r1	; 0x01
    121c:	8f ef       	ldi	r24, 0xFF	; 255
    121e:	83 83       	std	Z+3, r24	; 0x03
    1220:	0f 91       	pop	r16
    1222:	08 95       	ret

00001224 <_Z18init_vent_settingsv>:
    1224:	85 e0       	ldi	r24, 0x05	; 5
    1226:	90 e0       	ldi	r25, 0x00	; 0
    1228:	0e 94 77 14 	call	0x28ee	; 0x28ee <eeprom_read_byte>
    122c:	60 e0       	ldi	r22, 0x00	; 0
    122e:	0e 94 1d 08 	call	0x103a	; 0x103a <_Z17set_max_vent_timehh>
    1232:	84 e0       	ldi	r24, 0x04	; 4
    1234:	90 e0       	ldi	r25, 0x00	; 0
    1236:	0e 94 77 14 	call	0x28ee	; 0x28ee <eeprom_read_byte>
    123a:	60 e0       	ldi	r22, 0x00	; 0
    123c:	0e 94 30 08 	call	0x1060	; 0x1060 <_Z17set_min_vent_timehh>
    1240:	83 e0       	ldi	r24, 0x03	; 3
    1242:	90 e0       	ldi	r25, 0x00	; 0
    1244:	0e 94 77 14 	call	0x28ee	; 0x28ee <eeprom_read_byte>
    1248:	60 e0       	ldi	r22, 0x00	; 0
    124a:	0e 94 43 08 	call	0x1086	; 0x1086 <_Z24set_min_vent_temperaturehh>
    124e:	82 e0       	ldi	r24, 0x02	; 2
    1250:	90 e0       	ldi	r25, 0x00	; 0
    1252:	0e 94 77 14 	call	0x28ee	; 0x28ee <eeprom_read_byte>
    1256:	60 e0       	ldi	r22, 0x00	; 0
    1258:	0e 94 56 08 	call	0x10ac	; 0x10ac <_Z14set_vent_afterhh>
    125c:	86 e0       	ldi	r24, 0x06	; 6
    125e:	90 e0       	ldi	r25, 0x00	; 0
    1260:	0e 94 77 14 	call	0x28ee	; 0x28ee <eeprom_read_byte>
    1264:	60 e0       	ldi	r22, 0x00	; 0
    1266:	0c 94 68 08 	jmp	0x10d0	; 0x10d0 <_Z16set_vent_enabledhh>

0000126a <_Z25init_mode_counter_settingv>:
    126a:	80 e0       	ldi	r24, 0x00	; 0
    126c:	90 e0       	ldi	r25, 0x00	; 0
    126e:	0e 94 77 14 	call	0x28ee	; 0x28ee <eeprom_read_byte>
    1272:	60 e0       	ldi	r22, 0x00	; 0
    1274:	0e 94 08 08 	call	0x1010	; 0x1010 <_Z25set_somebody_in_wait_timehh>
    1278:	81 e0       	ldi	r24, 0x01	; 1
    127a:	90 e0       	ldi	r25, 0x00	; 0
    127c:	0e 94 77 14 	call	0x28ee	; 0x28ee <eeprom_read_byte>
    1280:	60 e0       	ldi	r22, 0x00	; 0
    1282:	0c 94 f3 07 	jmp	0xfe6	; 0xfe6 <_Z27set_investigation_wait_timehh>

00001286 <_Z19init_music_settingsv>:
    1286:	89 e0       	ldi	r24, 0x09	; 9
    1288:	90 e0       	ldi	r25, 0x00	; 0
    128a:	0e 94 77 14 	call	0x28ee	; 0x28ee <eeprom_read_byte>
    128e:	60 e0       	ldi	r22, 0x00	; 0
    1290:	0c 94 a5 08 	jmp	0x114a	; 0x114a <_Z17set_music_enabledhh>

00001294 <_Z19init_light_settingsv>:
    1294:	8c e0       	ldi	r24, 0x0C	; 12
    1296:	90 e0       	ldi	r25, 0x00	; 0
    1298:	0e 94 77 14 	call	0x28ee	; 0x28ee <eeprom_read_byte>
    129c:	60 e0       	ldi	r22, 0x00	; 0
    129e:	0e 94 b8 08 	call	0x1170	; 0x1170 <_Z22set_light_main_enabledhh>
    12a2:	8b e0       	ldi	r24, 0x0B	; 11
    12a4:	90 e0       	ldi	r25, 0x00	; 0
    12a6:	0e 94 77 14 	call	0x28ee	; 0x28ee <eeprom_read_byte>
    12aa:	60 e0       	ldi	r22, 0x00	; 0
    12ac:	0e 94 cb 08 	call	0x1196	; 0x1196 <_Z21set_light_sec_enabledhh>
    12b0:	8a e0       	ldi	r24, 0x0A	; 10
    12b2:	90 e0       	ldi	r25, 0x00	; 0
    12b4:	0e 94 77 14 	call	0x28ee	; 0x28ee <eeprom_read_byte>
    12b8:	60 e0       	ldi	r22, 0x00	; 0
    12ba:	0c 94 de 08 	jmp	0x11bc	; 0x11bc <_Z23set_light_relax_enabledhh>

000012be <_Z18init_door_settingsv>:
    12be:	33 9b       	sbis	0x06, 3	; 6
    12c0:	05 c0       	rjmp	.+10     	; 0x12cc <_Z18init_door_settingsv+0xe>
    12c2:	80 91 02 01 	lds	r24, 0x0102	; 0x800102 <_ZL10InterState>
    12c6:	84 60       	ori	r24, 0x04	; 4
    12c8:	80 93 02 01 	sts	0x0102, r24	; 0x800102 <_ZL10InterState>
    12cc:	08 95       	ret

000012ce <_Z21reset_command_readingv>:
    12ce:	10 92 12 03 	sts	0x0312, r1	; 0x800312 <_ZL18command_read_index>
    12d2:	10 92 10 03 	sts	0x0310, r1	; 0x800310 <__data_end>
    12d6:	80 e4       	ldi	r24, 0x40	; 64
    12d8:	e3 e1       	ldi	r30, 0x13	; 19
    12da:	f3 e0       	ldi	r31, 0x03	; 3
    12dc:	df 01       	movw	r26, r30
    12de:	1d 92       	st	X+, r1
    12e0:	8a 95       	dec	r24
    12e2:	e9 f7       	brne	.-6      	; 0x12de <_Z21reset_command_readingv+0x10>
    12e4:	08 95       	ret

000012e6 <_Z15process_commandPc>:
    12e6:	af 92       	push	r10
    12e8:	bf 92       	push	r11
    12ea:	cf 92       	push	r12
    12ec:	df 92       	push	r13
    12ee:	ef 92       	push	r14
    12f0:	ff 92       	push	r15
    12f2:	0f 93       	push	r16
    12f4:	1f 93       	push	r17
    12f6:	cf 93       	push	r28
    12f8:	df 93       	push	r29
    12fa:	cd b7       	in	r28, 0x3d	; 61
    12fc:	de b7       	in	r29, 0x3e	; 62
    12fe:	c2 54       	subi	r28, 0x42	; 66
    1300:	d1 09       	sbc	r29, r1
    1302:	0f b6       	in	r0, 0x3f	; 63
    1304:	f8 94       	cli
    1306:	de bf       	out	0x3e, r29	; 62
    1308:	0f be       	out	0x3f, r0	; 63
    130a:	cd bf       	out	0x3d, r28	; 61
    130c:	1b a2       	std	Y+35, r1	; 0x23
    130e:	1a a2       	std	Y+34, r1	; 0x22
    1310:	2f e1       	ldi	r18, 0x1F	; 31
    1312:	fe 01       	movw	r30, r28
    1314:	b4 96       	adiw	r30, 0x24	; 36
    1316:	df 01       	movw	r26, r30
    1318:	32 2f       	mov	r19, r18
    131a:	1d 92       	st	X+, r1
    131c:	3a 95       	dec	r19
    131e:	e9 f7       	brne	.-6      	; 0x131a <_Z15process_commandPc+0x34>
    1320:	1a 82       	std	Y+2, r1	; 0x02
    1322:	19 82       	std	Y+1, r1	; 0x01
    1324:	b1 97       	sbiw	r30, 0x21	; 33
    1326:	df 01       	movw	r26, r30
    1328:	1d 92       	st	X+, r1
    132a:	2a 95       	dec	r18
    132c:	e9 f7       	brne	.-6      	; 0x1328 <_Z15process_commandPc+0x42>
    132e:	fc 01       	movw	r30, r24
    1330:	41 e0       	ldi	r20, 0x01	; 1
    1332:	f1 2c       	mov	r15, r1
    1334:	20 e0       	ldi	r18, 0x00	; 0
    1336:	90 e0       	ldi	r25, 0x00	; 0
    1338:	31 91       	ld	r19, Z+
    133a:	33 23       	and	r19, r19
    133c:	a9 f0       	breq	.+42     	; 0x1368 <_Z15process_commandPc+0x82>
    133e:	41 34       	cpi	r20, 0x41	; 65
    1340:	99 f0       	breq	.+38     	; 0x1368 <_Z15process_commandPc+0x82>
    1342:	3d 33       	cpi	r19, 0x3D	; 61
    1344:	21 f4       	brne	.+8      	; 0x134e <_Z15process_commandPc+0x68>
    1346:	ff 24       	eor	r15, r15
    1348:	f3 94       	inc	r15
    134a:	4f 5f       	subi	r20, 0xFF	; 255
    134c:	f5 cf       	rjmp	.-22     	; 0x1338 <_Z15process_commandPc+0x52>
    134e:	f1 10       	cpse	r15, r1
    1350:	33 c3       	rjmp	.+1638   	; 0x19b8 <_Z15process_commandPc+0x6d2>
    1352:	90 32       	cpi	r25, 0x20	; 32
    1354:	d0 f7       	brcc	.-12     	; 0x134a <_Z15process_commandPc+0x64>
    1356:	a2 e2       	ldi	r26, 0x22	; 34
    1358:	b0 e0       	ldi	r27, 0x00	; 0
    135a:	ac 0f       	add	r26, r28
    135c:	bd 1f       	adc	r27, r29
    135e:	a9 0f       	add	r26, r25
    1360:	b1 1d       	adc	r27, r1
    1362:	3c 93       	st	X, r19
    1364:	9f 5f       	subi	r25, 0xFF	; 255
    1366:	f1 cf       	rjmp	.-30     	; 0x134a <_Z15process_commandPc+0x64>
    1368:	9e 01       	movw	r18, r28
    136a:	2f 5f       	subi	r18, 0xFF	; 255
    136c:	3f 4f       	sbci	r19, 0xFF	; 255
    136e:	69 01       	movw	r12, r18
    1370:	f9 01       	movw	r30, r18
    1372:	01 90       	ld	r0, Z+
    1374:	00 20       	and	r0, r0
    1376:	e9 f7       	brne	.-6      	; 0x1372 <_Z15process_commandPc+0x8c>
    1378:	31 97       	sbiw	r30, 0x01	; 1
    137a:	5f 01       	movw	r10, r30
    137c:	a2 1a       	sub	r10, r18
    137e:	b3 0a       	sbc	r11, r19
    1380:	8e 01       	movw	r16, r28
    1382:	0e 5d       	subi	r16, 0xDE	; 222
    1384:	1f 4f       	sbci	r17, 0xFF	; 255
    1386:	b8 01       	movw	r22, r16
    1388:	87 e0       	ldi	r24, 0x07	; 7
    138a:	91 e0       	ldi	r25, 0x01	; 1
    138c:	0e 94 47 11 	call	0x228e	; 0x228e <strcasecmp>
    1390:	89 2b       	or	r24, r25
    1392:	29 f4       	brne	.+10     	; 0x139e <_Z15process_commandPc+0xb8>
    1394:	88 e7       	ldi	r24, 0x78	; 120
    1396:	90 e0       	ldi	r25, 0x00	; 0
    1398:	0e 94 00 11 	call	0x2200	; 0x2200 <_Z11uart_puts_pPKc>
    139c:	44 c3       	rjmp	.+1672   	; 0x1a26 <_Z15process_commandPc+0x740>
    139e:	b8 01       	movw	r22, r16
    13a0:	8c e0       	ldi	r24, 0x0C	; 12
    13a2:	91 e0       	ldi	r25, 0x01	; 1
    13a4:	0e 94 47 11 	call	0x228e	; 0x228e <strcasecmp>
    13a8:	89 2b       	or	r24, r25
    13aa:	e1 f4       	brne	.+56     	; 0x13e4 <_Z15process_commandPc+0xfe>
    13ac:	87 e1       	ldi	r24, 0x17	; 23
    13ae:	91 e0       	ldi	r25, 0x01	; 1
    13b0:	0e 94 f4 10 	call	0x21e8	; 0x21e8 <_Z9uart_putsPKc>
    13b4:	8a e0       	ldi	r24, 0x0A	; 10
    13b6:	a8 95       	wdr
    13b8:	3f ef       	ldi	r19, 0xFF	; 255
    13ba:	4e e9       	ldi	r20, 0x9E	; 158
    13bc:	54 e2       	ldi	r21, 0x24	; 36
    13be:	31 50       	subi	r19, 0x01	; 1
    13c0:	40 40       	sbci	r20, 0x00	; 0
    13c2:	50 40       	sbci	r21, 0x00	; 0
    13c4:	e1 f7       	brne	.-8      	; 0x13be <_Z15process_commandPc+0xd8>
    13c6:	00 c0       	rjmp	.+0      	; 0x13c8 <_Z15process_commandPc+0xe2>
    13c8:	00 00       	nop
    13ca:	81 50       	subi	r24, 0x01	; 1
    13cc:	a1 f7       	brne	.-24     	; 0x13b6 <_Z15process_commandPc+0xd0>
    13ce:	98 e0       	ldi	r25, 0x08	; 8
    13d0:	88 e1       	ldi	r24, 0x18	; 24
    13d2:	0f b6       	in	r0, 0x3f	; 63
    13d4:	f8 94       	cli
    13d6:	a8 95       	wdr
    13d8:	80 93 60 00 	sts	0x0060, r24	; 0x800060 <__TEXT_REGION_LENGTH__+0x7e0060>
    13dc:	0f be       	out	0x3f, r0	; 63
    13de:	90 93 60 00 	sts	0x0060, r25	; 0x800060 <__TEXT_REGION_LENGTH__+0x7e0060>
    13e2:	ff cf       	rjmp	.-2      	; 0x13e2 <_Z15process_commandPc+0xfc>
    13e4:	b8 01       	movw	r22, r16
    13e6:	88 e5       	ldi	r24, 0x58	; 88
    13e8:	91 e0       	ldi	r25, 0x01	; 1
    13ea:	0e 94 47 11 	call	0x228e	; 0x228e <strcasecmp>
    13ee:	89 2b       	or	r24, r25
    13f0:	81 f4       	brne	.+32     	; 0x1412 <_Z15process_commandPc+0x12c>
    13f2:	80 91 67 03 	lds	r24, 0x0367	; 0x800367 <ht_sensor+0x1>
    13f6:	90 91 68 03 	lds	r25, 0x0368	; 0x800368 <ht_sensor+0x2>
    13fa:	6a e0       	ldi	r22, 0x0A	; 10
    13fc:	70 e0       	ldi	r23, 0x00	; 0
    13fe:	0e 94 0f 11 	call	0x221e	; 0x221e <__udivmodhi4>
    1402:	9f 93       	push	r25
    1404:	8f 93       	push	r24
    1406:	77 27       	eor	r23, r23
    1408:	7f 93       	push	r23
    140a:	6f 93       	push	r22
    140c:	82 e3       	ldi	r24, 0x32	; 50
    140e:	9a e0       	ldi	r25, 0x0A	; 10
    1410:	48 c0       	rjmp	.+144    	; 0x14a2 <_Z15process_commandPc+0x1bc>
    1412:	b8 01       	movw	r22, r16
    1414:	87 e3       	ldi	r24, 0x37	; 55
    1416:	91 e0       	ldi	r25, 0x01	; 1
    1418:	0e 94 47 11 	call	0x228e	; 0x228e <strcasecmp>
    141c:	89 2b       	or	r24, r25
    141e:	c9 f4       	brne	.+50     	; 0x1452 <_Z15process_commandPc+0x16c>
    1420:	80 91 66 03 	lds	r24, 0x0366	; 0x800366 <ht_sensor>
    1424:	1f 92       	push	r1
    1426:	8f 93       	push	r24
    1428:	88 e4       	ldi	r24, 0x48	; 72
    142a:	9a e0       	ldi	r25, 0x0A	; 10
    142c:	9f 93       	push	r25
    142e:	8f 93       	push	r24
    1430:	86 e7       	ldi	r24, 0x76	; 118
    1432:	93 e0       	ldi	r25, 0x03	; 3
    1434:	9f 93       	push	r25
    1436:	8f 93       	push	r24
    1438:	0e 94 b4 11 	call	0x2368	; 0x2368 <sprintf_P>
    143c:	86 e7       	ldi	r24, 0x76	; 118
    143e:	93 e0       	ldi	r25, 0x03	; 3
    1440:	0e 94 f4 10 	call	0x21e8	; 0x21e8 <_Z9uart_putsPKc>
    1444:	0f 90       	pop	r0
    1446:	0f 90       	pop	r0
    1448:	0f 90       	pop	r0
    144a:	0f 90       	pop	r0
    144c:	0f 90       	pop	r0
    144e:	0f 90       	pop	r0
    1450:	ea c2       	rjmp	.+1492   	; 0x1a26 <_Z15process_commandPc+0x740>
    1452:	b8 01       	movw	r22, r16
    1454:	89 e3       	ldi	r24, 0x39	; 57
    1456:	91 e0       	ldi	r25, 0x01	; 1
    1458:	0e 94 47 11 	call	0x228e	; 0x228e <strcasecmp>
    145c:	89 2b       	or	r24, r25
    145e:	19 f4       	brne	.+6      	; 0x1466 <_Z15process_commandPc+0x180>
    1460:	81 e4       	ldi	r24, 0x41	; 65
    1462:	91 e0       	ldi	r25, 0x01	; 1
    1464:	82 c2       	rjmp	.+1284   	; 0x196a <_Z15process_commandPc+0x684>
    1466:	b8 01       	movw	r22, r16
    1468:	85 e4       	ldi	r24, 0x45	; 69
    146a:	91 e0       	ldi	r25, 0x01	; 1
    146c:	0e 94 47 11 	call	0x228e	; 0x228e <strcasecmp>
    1470:	89 2b       	or	r24, r25
    1472:	49 f5       	brne	.+82     	; 0x14c6 <_Z15process_commandPc+0x1e0>
    1474:	80 91 53 03 	lds	r24, 0x0353	; 0x800353 <_ZL20uptime_hours_counter>
    1478:	90 91 54 03 	lds	r25, 0x0354	; 0x800354 <_ZL20uptime_hours_counter+0x1>
    147c:	e0 91 53 03 	lds	r30, 0x0353	; 0x800353 <_ZL20uptime_hours_counter>
    1480:	f0 91 54 03 	lds	r31, 0x0354	; 0x800354 <_ZL20uptime_hours_counter+0x1>
    1484:	28 e1       	ldi	r18, 0x18	; 24
    1486:	30 e0       	ldi	r19, 0x00	; 0
    1488:	b9 01       	movw	r22, r18
    148a:	0e 94 0f 11 	call	0x221e	; 0x221e <__udivmodhi4>
    148e:	9f 93       	push	r25
    1490:	8f 93       	push	r24
    1492:	cf 01       	movw	r24, r30
    1494:	b9 01       	movw	r22, r18
    1496:	0e 94 0f 11 	call	0x221e	; 0x221e <__udivmodhi4>
    149a:	7f 93       	push	r23
    149c:	6f 93       	push	r22
    149e:	84 e1       	ldi	r24, 0x14	; 20
    14a0:	9a e0       	ldi	r25, 0x0A	; 10
    14a2:	9f 93       	push	r25
    14a4:	8f 93       	push	r24
    14a6:	86 e7       	ldi	r24, 0x76	; 118
    14a8:	93 e0       	ldi	r25, 0x03	; 3
    14aa:	9f 93       	push	r25
    14ac:	8f 93       	push	r24
    14ae:	0e 94 b4 11 	call	0x2368	; 0x2368 <sprintf_P>
    14b2:	86 e7       	ldi	r24, 0x76	; 118
    14b4:	93 e0       	ldi	r25, 0x03	; 3
    14b6:	0e 94 f4 10 	call	0x21e8	; 0x21e8 <_Z9uart_putsPKc>
    14ba:	0f b6       	in	r0, 0x3f	; 63
    14bc:	f8 94       	cli
    14be:	de bf       	out	0x3e, r29	; 62
    14c0:	0f be       	out	0x3f, r0	; 63
    14c2:	cd bf       	out	0x3d, r28	; 61
    14c4:	b0 c2       	rjmp	.+1376   	; 0x1a26 <_Z15process_commandPc+0x740>
    14c6:	b8 01       	movw	r22, r16
    14c8:	8c e4       	ldi	r24, 0x4C	; 76
    14ca:	91 e0       	ldi	r25, 0x01	; 1
    14cc:	0e 94 47 11 	call	0x228e	; 0x228e <strcasecmp>
    14d0:	89 2b       	or	r24, r25
    14d2:	39 f0       	breq	.+14     	; 0x14e2 <_Z15process_commandPc+0x1fc>
    14d4:	b8 01       	movw	r22, r16
    14d6:	84 e5       	ldi	r24, 0x54	; 84
    14d8:	91 e0       	ldi	r25, 0x01	; 1
    14da:	0e 94 47 11 	call	0x228e	; 0x228e <strcasecmp>
    14de:	89 2b       	or	r24, r25
    14e0:	79 f4       	brne	.+30     	; 0x1500 <_Z15process_commandPc+0x21a>
    14e2:	8a e5       	ldi	r24, 0x5A	; 90
    14e4:	91 e0       	ldi	r25, 0x01	; 1
    14e6:	0e 94 f4 10 	call	0x21e8	; 0x21e8 <_Z9uart_putsPKc>
    14ea:	98 e0       	ldi	r25, 0x08	; 8
    14ec:	88 e1       	ldi	r24, 0x18	; 24
    14ee:	0f b6       	in	r0, 0x3f	; 63
    14f0:	f8 94       	cli
    14f2:	a8 95       	wdr
    14f4:	80 93 60 00 	sts	0x0060, r24	; 0x800060 <__TEXT_REGION_LENGTH__+0x7e0060>
    14f8:	0f be       	out	0x3f, r0	; 63
    14fa:	90 93 60 00 	sts	0x0060, r25	; 0x800060 <__TEXT_REGION_LENGTH__+0x7e0060>
    14fe:	ff cf       	rjmp	.-2      	; 0x14fe <_Z15process_commandPc+0x218>
    1500:	ea 2c       	mov	r14, r10
    1502:	b8 01       	movw	r22, r16
    1504:	89 e6       	ldi	r24, 0x69	; 105
    1506:	91 e0       	ldi	r25, 0x01	; 1
    1508:	0e 94 47 11 	call	0x228e	; 0x228e <strcasecmp>
    150c:	89 2b       	or	r24, r25
    150e:	81 f4       	brne	.+32     	; 0x1530 <_Z15process_commandPc+0x24a>
    1510:	ff 20       	and	r15, r15
    1512:	59 f0       	breq	.+22     	; 0x152a <_Z15process_commandPc+0x244>
    1514:	8f ef       	ldi	r24, 0xFF	; 255
    1516:	8a 0d       	add	r24, r10
    1518:	82 30       	cpi	r24, 0x02	; 2
    151a:	50 f4       	brcc	.+20     	; 0x1530 <_Z15process_commandPc+0x24a>
    151c:	c6 01       	movw	r24, r12
    151e:	0e 94 29 11 	call	0x2252	; 0x2252 <atoi>
    1522:	61 e0       	ldi	r22, 0x01	; 1
    1524:	0e 94 7b 08 	call	0x10f6	; 0x10f6 <_Z29set_humidity_vent_on_settingshh>
    1528:	53 c2       	rjmp	.+1190   	; 0x19d0 <_Z15process_commandPc+0x6ea>
    152a:	80 91 6c 03 	lds	r24, 0x036C	; 0x80036c <_ZL22humidity_vent_on_value>
    152e:	3e c2       	rjmp	.+1148   	; 0x19ac <_Z15process_commandPc+0x6c6>
    1530:	b8 01       	movw	r22, r16
    1532:	83 e7       	ldi	r24, 0x73	; 115
    1534:	91 e0       	ldi	r25, 0x01	; 1
    1536:	0e 94 47 11 	call	0x228e	; 0x228e <strcasecmp>
    153a:	89 2b       	or	r24, r25
    153c:	81 f4       	brne	.+32     	; 0x155e <_Z15process_commandPc+0x278>
    153e:	ff 20       	and	r15, r15
    1540:	59 f0       	breq	.+22     	; 0x1558 <_Z15process_commandPc+0x272>
    1542:	8f ef       	ldi	r24, 0xFF	; 255
    1544:	8a 0d       	add	r24, r10
    1546:	82 30       	cpi	r24, 0x02	; 2
    1548:	50 f4       	brcc	.+20     	; 0x155e <_Z15process_commandPc+0x278>
    154a:	c6 01       	movw	r24, r12
    154c:	0e 94 29 11 	call	0x2252	; 0x2252 <atoi>
    1550:	61 e0       	ldi	r22, 0x01	; 1
    1552:	0e 94 90 08 	call	0x1120	; 0x1120 <_Z30set_humidity_vent_off_settingshh>
    1556:	3c c2       	rjmp	.+1144   	; 0x19d0 <_Z15process_commandPc+0x6ea>
    1558:	80 91 6b 03 	lds	r24, 0x036B	; 0x80036b <_ZL23humidity_vent_off_value>
    155c:	27 c2       	rjmp	.+1102   	; 0x19ac <_Z15process_commandPc+0x6c6>
    155e:	b8 01       	movw	r22, r16
    1560:	8e e7       	ldi	r24, 0x7E	; 126
    1562:	91 e0       	ldi	r25, 0x01	; 1
    1564:	0e 94 47 11 	call	0x228e	; 0x228e <strcasecmp>
    1568:	89 2b       	or	r24, r25
    156a:	81 f4       	brne	.+32     	; 0x158c <_Z15process_commandPc+0x2a6>
    156c:	ff 20       	and	r15, r15
    156e:	59 f0       	breq	.+22     	; 0x1586 <_Z15process_commandPc+0x2a0>
    1570:	8f ef       	ldi	r24, 0xFF	; 255
    1572:	8a 0d       	add	r24, r10
    1574:	83 30       	cpi	r24, 0x03	; 3
    1576:	50 f4       	brcc	.+20     	; 0x158c <_Z15process_commandPc+0x2a6>
    1578:	c6 01       	movw	r24, r12
    157a:	0e 94 29 11 	call	0x2252	; 0x2252 <atoi>
    157e:	61 e0       	ldi	r22, 0x01	; 1
    1580:	0e 94 1d 08 	call	0x103a	; 0x103a <_Z17set_max_vent_timehh>
    1584:	25 c2       	rjmp	.+1098   	; 0x19d0 <_Z15process_commandPc+0x6ea>
    1586:	80 91 64 03 	lds	r24, 0x0364	; 0x800364 <vent_max_time_settings>
    158a:	10 c2       	rjmp	.+1056   	; 0x19ac <_Z15process_commandPc+0x6c6>
    158c:	b8 01       	movw	r22, r16
    158e:	8c e8       	ldi	r24, 0x8C	; 140
    1590:	91 e0       	ldi	r25, 0x01	; 1
    1592:	0e 94 47 11 	call	0x228e	; 0x228e <strcasecmp>
    1596:	89 2b       	or	r24, r25
    1598:	81 f4       	brne	.+32     	; 0x15ba <_Z15process_commandPc+0x2d4>
    159a:	ff 20       	and	r15, r15
    159c:	59 f0       	breq	.+22     	; 0x15b4 <_Z15process_commandPc+0x2ce>
    159e:	8f ef       	ldi	r24, 0xFF	; 255
    15a0:	8a 0d       	add	r24, r10
    15a2:	83 30       	cpi	r24, 0x03	; 3
    15a4:	50 f4       	brcc	.+20     	; 0x15ba <_Z15process_commandPc+0x2d4>
    15a6:	c6 01       	movw	r24, r12
    15a8:	0e 94 29 11 	call	0x2252	; 0x2252 <atoi>
    15ac:	61 e0       	ldi	r22, 0x01	; 1
    15ae:	0e 94 30 08 	call	0x1060	; 0x1060 <_Z17set_min_vent_timehh>
    15b2:	0e c2       	rjmp	.+1052   	; 0x19d0 <_Z15process_commandPc+0x6ea>
    15b4:	80 91 63 03 	lds	r24, 0x0363	; 0x800363 <vent_min_time_settings>
    15b8:	f9 c1       	rjmp	.+1010   	; 0x19ac <_Z15process_commandPc+0x6c6>
    15ba:	b8 01       	movw	r22, r16
    15bc:	8a e9       	ldi	r24, 0x9A	; 154
    15be:	91 e0       	ldi	r25, 0x01	; 1
    15c0:	0e 94 47 11 	call	0x228e	; 0x228e <strcasecmp>
    15c4:	89 2b       	or	r24, r25
    15c6:	81 f4       	brne	.+32     	; 0x15e8 <_Z15process_commandPc+0x302>
    15c8:	ff 20       	and	r15, r15
    15ca:	59 f0       	breq	.+22     	; 0x15e2 <_Z15process_commandPc+0x2fc>
    15cc:	8f ef       	ldi	r24, 0xFF	; 255
    15ce:	8a 0d       	add	r24, r10
    15d0:	82 30       	cpi	r24, 0x02	; 2
    15d2:	50 f4       	brcc	.+20     	; 0x15e8 <_Z15process_commandPc+0x302>
    15d4:	c6 01       	movw	r24, r12
    15d6:	0e 94 29 11 	call	0x2252	; 0x2252 <atoi>
    15da:	61 e0       	ldi	r22, 0x01	; 1
    15dc:	0e 94 43 08 	call	0x1086	; 0x1086 <_Z24set_min_vent_temperaturehh>
    15e0:	f7 c1       	rjmp	.+1006   	; 0x19d0 <_Z15process_commandPc+0x6ea>
    15e2:	80 91 62 03 	lds	r24, 0x0362	; 0x800362 <vent_min_temp_settings>
    15e6:	e2 c1       	rjmp	.+964    	; 0x19ac <_Z15process_commandPc+0x6c6>
    15e8:	b8 01       	movw	r22, r16
    15ea:	88 ea       	ldi	r24, 0xA8	; 168
    15ec:	91 e0       	ldi	r25, 0x01	; 1
    15ee:	0e 94 47 11 	call	0x228e	; 0x228e <strcasecmp>
    15f2:	89 2b       	or	r24, r25
    15f4:	79 f4       	brne	.+30     	; 0x1614 <_Z15process_commandPc+0x32e>
    15f6:	ff 20       	and	r15, r15
    15f8:	51 f0       	breq	.+20     	; 0x160e <_Z15process_commandPc+0x328>
    15fa:	b1 e0       	ldi	r27, 0x01	; 1
    15fc:	eb 12       	cpse	r14, r27
    15fe:	0a c0       	rjmp	.+20     	; 0x1614 <_Z15process_commandPc+0x32e>
    1600:	c6 01       	movw	r24, r12
    1602:	0e 94 29 11 	call	0x2252	; 0x2252 <atoi>
    1606:	61 e0       	ldi	r22, 0x01	; 1
    1608:	0e 94 56 08 	call	0x10ac	; 0x10ac <_Z14set_vent_afterhh>
    160c:	e1 c1       	rjmp	.+962    	; 0x19d0 <_Z15process_commandPc+0x6ea>
    160e:	80 91 61 03 	lds	r24, 0x0361	; 0x800361 <vent_after_settings>
    1612:	cc c1       	rjmp	.+920    	; 0x19ac <_Z15process_commandPc+0x6c6>
    1614:	b8 01       	movw	r22, r16
    1616:	83 eb       	ldi	r24, 0xB3	; 179
    1618:	91 e0       	ldi	r25, 0x01	; 1
    161a:	0e 94 47 11 	call	0x228e	; 0x228e <strcasecmp>
    161e:	89 2b       	or	r24, r25
    1620:	79 f4       	brne	.+30     	; 0x1640 <_Z15process_commandPc+0x35a>
    1622:	ff 20       	and	r15, r15
    1624:	51 f0       	breq	.+20     	; 0x163a <_Z15process_commandPc+0x354>
    1626:	21 e0       	ldi	r18, 0x01	; 1
    1628:	e2 12       	cpse	r14, r18
    162a:	0a c0       	rjmp	.+20     	; 0x1640 <_Z15process_commandPc+0x35a>
    162c:	c6 01       	movw	r24, r12
    162e:	0e 94 29 11 	call	0x2252	; 0x2252 <atoi>
    1632:	61 e0       	ldi	r22, 0x01	; 1
    1634:	0e 94 68 08 	call	0x10d0	; 0x10d0 <_Z16set_vent_enabledhh>
    1638:	cb c1       	rjmp	.+918    	; 0x19d0 <_Z15process_commandPc+0x6ea>
    163a:	80 91 65 03 	lds	r24, 0x0365	; 0x800365 <vent_enabled_settings>
    163e:	b6 c1       	rjmp	.+876    	; 0x19ac <_Z15process_commandPc+0x6c6>
    1640:	b8 01       	movw	r22, r16
    1642:	80 ec       	ldi	r24, 0xC0	; 192
    1644:	91 e0       	ldi	r25, 0x01	; 1
    1646:	0e 94 47 11 	call	0x228e	; 0x228e <strcasecmp>
    164a:	89 2b       	or	r24, r25
    164c:	79 f4       	brne	.+30     	; 0x166c <_Z15process_commandPc+0x386>
    164e:	ff 20       	and	r15, r15
    1650:	51 f0       	breq	.+20     	; 0x1666 <_Z15process_commandPc+0x380>
    1652:	31 e0       	ldi	r19, 0x01	; 1
    1654:	e3 12       	cpse	r14, r19
    1656:	0a c0       	rjmp	.+20     	; 0x166c <_Z15process_commandPc+0x386>
    1658:	c6 01       	movw	r24, r12
    165a:	0e 94 29 11 	call	0x2252	; 0x2252 <atoi>
    165e:	61 e0       	ldi	r22, 0x01	; 1
    1660:	0e 94 a5 08 	call	0x114a	; 0x114a <_Z17set_music_enabledhh>
    1664:	b5 c1       	rjmp	.+874    	; 0x19d0 <_Z15process_commandPc+0x6ea>
    1666:	80 91 03 01 	lds	r24, 0x0103	; 0x800103 <_ZL22music_enabled_settings>
    166a:	a0 c1       	rjmp	.+832    	; 0x19ac <_Z15process_commandPc+0x6c6>
    166c:	b8 01       	movw	r22, r16
    166e:	8e ec       	ldi	r24, 0xCE	; 206
    1670:	91 e0       	ldi	r25, 0x01	; 1
    1672:	0e 94 47 11 	call	0x228e	; 0x228e <strcasecmp>
    1676:	89 2b       	or	r24, r25
    1678:	79 f4       	brne	.+30     	; 0x1698 <_Z15process_commandPc+0x3b2>
    167a:	ff 20       	and	r15, r15
    167c:	51 f0       	breq	.+20     	; 0x1692 <_Z15process_commandPc+0x3ac>
    167e:	41 e0       	ldi	r20, 0x01	; 1
    1680:	e4 12       	cpse	r14, r20
    1682:	0a c0       	rjmp	.+20     	; 0x1698 <_Z15process_commandPc+0x3b2>
    1684:	c6 01       	movw	r24, r12
    1686:	0e 94 29 11 	call	0x2252	; 0x2252 <atoi>
    168a:	61 e0       	ldi	r22, 0x01	; 1
    168c:	0e 94 b8 08 	call	0x1170	; 0x1170 <_Z22set_light_main_enabledhh>
    1690:	9f c1       	rjmp	.+830    	; 0x19d0 <_Z15process_commandPc+0x6ea>
    1692:	80 91 05 01 	lds	r24, 0x0105	; 0x800105 <_ZL27light_main_enabled_settings>
    1696:	8a c1       	rjmp	.+788    	; 0x19ac <_Z15process_commandPc+0x6c6>
    1698:	b8 01       	movw	r22, r16
    169a:	81 ee       	ldi	r24, 0xE1	; 225
    169c:	91 e0       	ldi	r25, 0x01	; 1
    169e:	0e 94 47 11 	call	0x228e	; 0x228e <strcasecmp>
    16a2:	89 2b       	or	r24, r25
    16a4:	79 f4       	brne	.+30     	; 0x16c4 <_Z15process_commandPc+0x3de>
    16a6:	ff 20       	and	r15, r15
    16a8:	51 f0       	breq	.+20     	; 0x16be <_Z15process_commandPc+0x3d8>
    16aa:	51 e0       	ldi	r21, 0x01	; 1
    16ac:	e5 12       	cpse	r14, r21
    16ae:	0a c0       	rjmp	.+20     	; 0x16c4 <_Z15process_commandPc+0x3de>
    16b0:	c6 01       	movw	r24, r12
    16b2:	0e 94 29 11 	call	0x2252	; 0x2252 <atoi>
    16b6:	61 e0       	ldi	r22, 0x01	; 1
    16b8:	0e 94 cb 08 	call	0x1196	; 0x1196 <_Z21set_light_sec_enabledhh>
    16bc:	89 c1       	rjmp	.+786    	; 0x19d0 <_Z15process_commandPc+0x6ea>
    16be:	80 91 04 01 	lds	r24, 0x0104	; 0x800104 <_ZL26light_sec_enabled_settings>
    16c2:	74 c1       	rjmp	.+744    	; 0x19ac <_Z15process_commandPc+0x6c6>
    16c4:	b8 01       	movw	r22, r16
    16c6:	83 ef       	ldi	r24, 0xF3	; 243
    16c8:	91 e0       	ldi	r25, 0x01	; 1
    16ca:	0e 94 47 11 	call	0x228e	; 0x228e <strcasecmp>
    16ce:	89 2b       	or	r24, r25
    16d0:	79 f4       	brne	.+30     	; 0x16f0 <_Z15process_commandPc+0x40a>
    16d2:	ff 20       	and	r15, r15
    16d4:	51 f0       	breq	.+20     	; 0x16ea <_Z15process_commandPc+0x404>
    16d6:	81 e0       	ldi	r24, 0x01	; 1
    16d8:	e8 12       	cpse	r14, r24
    16da:	0a c0       	rjmp	.+20     	; 0x16f0 <_Z15process_commandPc+0x40a>
    16dc:	c6 01       	movw	r24, r12
    16de:	0e 94 29 11 	call	0x2252	; 0x2252 <atoi>
    16e2:	61 e0       	ldi	r22, 0x01	; 1
    16e4:	0e 94 de 08 	call	0x11bc	; 0x11bc <_Z23set_light_relax_enabledhh>
    16e8:	73 c1       	rjmp	.+742    	; 0x19d0 <_Z15process_commandPc+0x6ea>
    16ea:	80 91 75 03 	lds	r24, 0x0375	; 0x800375 <_ZL28light_relax_enabled_settings>
    16ee:	5e c1       	rjmp	.+700    	; 0x19ac <_Z15process_commandPc+0x6c6>
    16f0:	b8 01       	movw	r22, r16
    16f2:	87 e0       	ldi	r24, 0x07	; 7
    16f4:	92 e0       	ldi	r25, 0x02	; 2
    16f6:	0e 94 47 11 	call	0x228e	; 0x228e <strcasecmp>
    16fa:	89 2b       	or	r24, r25
    16fc:	81 f4       	brne	.+32     	; 0x171e <_Z15process_commandPc+0x438>
    16fe:	ff 20       	and	r15, r15
    1700:	59 f0       	breq	.+22     	; 0x1718 <_Z15process_commandPc+0x432>
    1702:	8f ef       	ldi	r24, 0xFF	; 255
    1704:	8a 0d       	add	r24, r10
    1706:	83 30       	cpi	r24, 0x03	; 3
    1708:	50 f4       	brcc	.+20     	; 0x171e <_Z15process_commandPc+0x438>
    170a:	c6 01       	movw	r24, r12
    170c:	0e 94 29 11 	call	0x2252	; 0x2252 <atoi>
    1710:	61 e0       	ldi	r22, 0x01	; 1
    1712:	0e 94 f3 07 	call	0xfe6	; 0xfe6 <_Z27set_investigation_wait_timehh>
    1716:	5c c1       	rjmp	.+696    	; 0x19d0 <_Z15process_commandPc+0x6ea>
    1718:	80 91 5e 03 	lds	r24, 0x035E	; 0x80035e <_ZL23investigation_wait_time>
    171c:	47 c1       	rjmp	.+654    	; 0x19ac <_Z15process_commandPc+0x6c6>
    171e:	b8 01       	movw	r22, r16
    1720:	85 e1       	ldi	r24, 0x15	; 21
    1722:	92 e0       	ldi	r25, 0x02	; 2
    1724:	0e 94 47 11 	call	0x228e	; 0x228e <strcasecmp>
    1728:	89 2b       	or	r24, r25
    172a:	81 f4       	brne	.+32     	; 0x174c <_Z15process_commandPc+0x466>
    172c:	ff 20       	and	r15, r15
    172e:	59 f0       	breq	.+22     	; 0x1746 <_Z15process_commandPc+0x460>
    1730:	8f ef       	ldi	r24, 0xFF	; 255
    1732:	8a 0d       	add	r24, r10
    1734:	83 30       	cpi	r24, 0x03	; 3
    1736:	50 f4       	brcc	.+20     	; 0x174c <_Z15process_commandPc+0x466>
    1738:	c6 01       	movw	r24, r12
    173a:	0e 94 29 11 	call	0x2252	; 0x2252 <atoi>
    173e:	61 e0       	ldi	r22, 0x01	; 1
    1740:	0e 94 08 08 	call	0x1010	; 0x1010 <_Z25set_somebody_in_wait_timehh>
    1744:	45 c1       	rjmp	.+650    	; 0x19d0 <_Z15process_commandPc+0x6ea>
    1746:	80 91 5d 03 	lds	r24, 0x035D	; 0x80035d <_ZL21somebody_in_wait_time>
    174a:	30 c1       	rjmp	.+608    	; 0x19ac <_Z15process_commandPc+0x6c6>
    174c:	b8 01       	movw	r22, r16
    174e:	8b e2       	ldi	r24, 0x2B	; 43
    1750:	92 e0       	ldi	r25, 0x02	; 2
    1752:	0e 94 47 11 	call	0x228e	; 0x228e <strcasecmp>
    1756:	89 2b       	or	r24, r25
    1758:	29 f4       	brne	.+10     	; 0x1764 <_Z15process_commandPc+0x47e>
    175a:	f1 10       	cpse	r15, r1
    175c:	03 c0       	rjmp	.+6      	; 0x1764 <_Z15process_commandPc+0x47e>
    175e:	0e 94 00 06 	call	0xc00	; 0xc00 <_Z15run_device_testv>
    1762:	61 c1       	rjmp	.+706    	; 0x1a26 <_Z15process_commandPc+0x740>
    1764:	b8 01       	movw	r22, r16
    1766:	80 e3       	ldi	r24, 0x30	; 48
    1768:	92 e0       	ldi	r25, 0x02	; 2
    176a:	0e 94 47 11 	call	0x228e	; 0x228e <strcasecmp>
    176e:	89 2b       	or	r24, r25
    1770:	c9 f4       	brne	.+50     	; 0x17a4 <_Z15process_commandPc+0x4be>
    1772:	ff 20       	and	r15, r15
    1774:	b9 f0       	breq	.+46     	; 0x17a4 <_Z15process_commandPc+0x4be>
    1776:	91 e0       	ldi	r25, 0x01	; 1
    1778:	e9 12       	cpse	r14, r25
    177a:	14 c0       	rjmp	.+40     	; 0x17a4 <_Z15process_commandPc+0x4be>
    177c:	c6 01       	movw	r24, r12
    177e:	0e 94 29 11 	call	0x2252	; 0x2252 <atoi>
    1782:	88 30       	cpi	r24, 0x08	; 8
    1784:	08 f0       	brcs	.+2      	; 0x1788 <_Z15process_commandPc+0x4a2>
    1786:	4f c1       	rjmp	.+670    	; 0x1a26 <_Z15process_commandPc+0x740>
    1788:	21 e0       	ldi	r18, 0x01	; 1
    178a:	30 e0       	ldi	r19, 0x00	; 0
    178c:	d9 01       	movw	r26, r18
    178e:	02 c0       	rjmp	.+4      	; 0x1794 <_Z15process_commandPc+0x4ae>
    1790:	aa 0f       	add	r26, r26
    1792:	bb 1f       	adc	r27, r27
    1794:	8a 95       	dec	r24
    1796:	e2 f7       	brpl	.-8      	; 0x1790 <_Z15process_commandPc+0x4aa>
    1798:	cd 01       	movw	r24, r26
    179a:	90 91 06 01 	lds	r25, 0x0106	; 0x800106 <_ZL20out_pin_level_config>
    179e:	61 e0       	ldi	r22, 0x01	; 1
    17a0:	89 2b       	or	r24, r25
    17a2:	20 c0       	rjmp	.+64     	; 0x17e4 <_Z15process_commandPc+0x4fe>
    17a4:	b8 01       	movw	r22, r16
    17a6:	81 e4       	ldi	r24, 0x41	; 65
    17a8:	92 e0       	ldi	r25, 0x02	; 2
    17aa:	0e 94 47 11 	call	0x228e	; 0x228e <strcasecmp>
    17ae:	89 2b       	or	r24, r25
    17b0:	e1 f4       	brne	.+56     	; 0x17ea <_Z15process_commandPc+0x504>
    17b2:	ff 20       	and	r15, r15
    17b4:	d1 f0       	breq	.+52     	; 0x17ea <_Z15process_commandPc+0x504>
    17b6:	b1 e0       	ldi	r27, 0x01	; 1
    17b8:	eb 12       	cpse	r14, r27
    17ba:	17 c0       	rjmp	.+46     	; 0x17ea <_Z15process_commandPc+0x504>
    17bc:	c6 01       	movw	r24, r12
    17be:	0e 94 29 11 	call	0x2252	; 0x2252 <atoi>
    17c2:	88 30       	cpi	r24, 0x08	; 8
    17c4:	08 f0       	brcs	.+2      	; 0x17c8 <_Z15process_commandPc+0x4e2>
    17c6:	2f c1       	rjmp	.+606    	; 0x1a26 <_Z15process_commandPc+0x740>
    17c8:	21 e0       	ldi	r18, 0x01	; 1
    17ca:	30 e0       	ldi	r19, 0x00	; 0
    17cc:	a9 01       	movw	r20, r18
    17ce:	02 c0       	rjmp	.+4      	; 0x17d4 <_Z15process_commandPc+0x4ee>
    17d0:	44 0f       	add	r20, r20
    17d2:	55 1f       	adc	r21, r21
    17d4:	8a 95       	dec	r24
    17d6:	e2 f7       	brpl	.-8      	; 0x17d0 <_Z15process_commandPc+0x4ea>
    17d8:	ca 01       	movw	r24, r20
    17da:	80 95       	com	r24
    17dc:	90 91 06 01 	lds	r25, 0x0106	; 0x800106 <_ZL20out_pin_level_config>
    17e0:	61 e0       	ldi	r22, 0x01	; 1
    17e2:	89 23       	and	r24, r25
    17e4:	0e 94 e5 07 	call	0xfca	; 0xfca <_Z24set_out_pin_level_confighh>
    17e8:	f3 c0       	rjmp	.+486    	; 0x19d0 <_Z15process_commandPc+0x6ea>
    17ea:	b8 01       	movw	r22, r16
    17ec:	81 e5       	ldi	r24, 0x51	; 81
    17ee:	92 e0       	ldi	r25, 0x02	; 2
    17f0:	0e 94 47 11 	call	0x228e	; 0x228e <strcasecmp>
    17f4:	89 2b       	or	r24, r25
    17f6:	39 f5       	brne	.+78     	; 0x1846 <_Z15process_commandPc+0x560>
    17f8:	f1 10       	cpse	r15, r1
    17fa:	25 c0       	rjmp	.+74     	; 0x1846 <_Z15process_commandPc+0x560>
    17fc:	00 e0       	ldi	r16, 0x00	; 0
    17fe:	10 e0       	ldi	r17, 0x00	; 0
    1800:	4a e0       	ldi	r20, 0x0A	; 10
    1802:	50 e0       	ldi	r21, 0x00	; 0
    1804:	66 e7       	ldi	r22, 0x76	; 118
    1806:	73 e0       	ldi	r23, 0x03	; 3
    1808:	c8 01       	movw	r24, r16
    180a:	0e 94 5a 11 	call	0x22b4	; 0x22b4 <itoa>
    180e:	86 e7       	ldi	r24, 0x76	; 118
    1810:	93 e0       	ldi	r25, 0x03	; 3
    1812:	0e 94 f4 10 	call	0x21e8	; 0x21e8 <_Z9uart_putsPKc>
    1816:	80 91 06 01 	lds	r24, 0x0106	; 0x800106 <_ZL20out_pin_level_config>
    181a:	90 e0       	ldi	r25, 0x00	; 0
    181c:	00 2e       	mov	r0, r16
    181e:	02 c0       	rjmp	.+4      	; 0x1824 <_Z15process_commandPc+0x53e>
    1820:	95 95       	asr	r25
    1822:	87 95       	ror	r24
    1824:	0a 94       	dec	r0
    1826:	e2 f7       	brpl	.-8      	; 0x1820 <_Z15process_commandPc+0x53a>
    1828:	80 ff       	sbrs	r24, 0
    182a:	03 c0       	rjmp	.+6      	; 0x1832 <_Z15process_commandPc+0x54c>
    182c:	8b e5       	ldi	r24, 0x5B	; 91
    182e:	92 e0       	ldi	r25, 0x02	; 2
    1830:	02 c0       	rjmp	.+4      	; 0x1836 <_Z15process_commandPc+0x550>
    1832:	82 e6       	ldi	r24, 0x62	; 98
    1834:	92 e0       	ldi	r25, 0x02	; 2
    1836:	0e 94 f4 10 	call	0x21e8	; 0x21e8 <_Z9uart_putsPKc>
    183a:	0f 5f       	subi	r16, 0xFF	; 255
    183c:	1f 4f       	sbci	r17, 0xFF	; 255
    183e:	08 30       	cpi	r16, 0x08	; 8
    1840:	11 05       	cpc	r17, r1
    1842:	f1 f6       	brne	.-68     	; 0x1800 <_Z15process_commandPc+0x51a>
    1844:	f0 c0       	rjmp	.+480    	; 0x1a26 <_Z15process_commandPc+0x740>
    1846:	b8 01       	movw	r22, r16
    1848:	88 e6       	ldi	r24, 0x68	; 104
    184a:	92 e0       	ldi	r25, 0x02	; 2
    184c:	0e 94 47 11 	call	0x228e	; 0x228e <strcasecmp>
    1850:	89 2b       	or	r24, r25
    1852:	a1 f5       	brne	.+104    	; 0x18bc <_Z15process_commandPc+0x5d6>
    1854:	f1 10       	cpse	r15, r1
    1856:	32 c0       	rjmp	.+100    	; 0x18bc <_Z15process_commandPc+0x5d6>
    1858:	00 e0       	ldi	r16, 0x00	; 0
    185a:	10 e0       	ldi	r17, 0x00	; 0
    185c:	f0 2e       	mov	r15, r16
    185e:	4a e0       	ldi	r20, 0x0A	; 10
    1860:	50 e0       	ldi	r21, 0x00	; 0
    1862:	66 e7       	ldi	r22, 0x76	; 118
    1864:	73 e0       	ldi	r23, 0x03	; 3
    1866:	c8 01       	movw	r24, r16
    1868:	0e 94 5a 11 	call	0x22b4	; 0x22b4 <itoa>
    186c:	86 e7       	ldi	r24, 0x76	; 118
    186e:	93 e0       	ldi	r25, 0x03	; 3
    1870:	0e 94 f4 10 	call	0x21e8	; 0x21e8 <_Z9uart_putsPKc>
    1874:	80 91 06 01 	lds	r24, 0x0106	; 0x800106 <_ZL20out_pin_level_config>
    1878:	90 e0       	ldi	r25, 0x00	; 0
    187a:	00 2e       	mov	r0, r16
    187c:	02 c0       	rjmp	.+4      	; 0x1882 <_Z15process_commandPc+0x59c>
    187e:	95 95       	asr	r25
    1880:	87 95       	ror	r24
    1882:	0a 94       	dec	r0
    1884:	e2 f7       	brpl	.-8      	; 0x187e <_Z15process_commandPc+0x598>
    1886:	80 ff       	sbrs	r24, 0
    1888:	03 c0       	rjmp	.+6      	; 0x1890 <_Z15process_commandPc+0x5aa>
    188a:	85 e7       	ldi	r24, 0x75	; 117
    188c:	92 e0       	ldi	r25, 0x02	; 2
    188e:	02 c0       	rjmp	.+4      	; 0x1894 <_Z15process_commandPc+0x5ae>
    1890:	8c e7       	ldi	r24, 0x7C	; 124
    1892:	92 e0       	ldi	r25, 0x02	; 2
    1894:	0e 94 f4 10 	call	0x21e8	; 0x21e8 <_Z9uart_putsPKc>
    1898:	8f 2d       	mov	r24, r15
    189a:	0e 94 91 05 	call	0xb22	; 0xb22 <_Z19pin_check_output_onh>
    189e:	88 23       	and	r24, r24
    18a0:	19 f0       	breq	.+6      	; 0x18a8 <_Z15process_commandPc+0x5c2>
    18a2:	83 e8       	ldi	r24, 0x83	; 131
    18a4:	92 e0       	ldi	r25, 0x02	; 2
    18a6:	02 c0       	rjmp	.+4      	; 0x18ac <_Z15process_commandPc+0x5c6>
    18a8:	87 e8       	ldi	r24, 0x87	; 135
    18aa:	92 e0       	ldi	r25, 0x02	; 2
    18ac:	0e 94 f4 10 	call	0x21e8	; 0x21e8 <_Z9uart_putsPKc>
    18b0:	0f 5f       	subi	r16, 0xFF	; 255
    18b2:	1f 4f       	sbci	r17, 0xFF	; 255
    18b4:	08 30       	cpi	r16, 0x08	; 8
    18b6:	11 05       	cpc	r17, r1
    18b8:	89 f6       	brne	.-94     	; 0x185c <_Z15process_commandPc+0x576>
    18ba:	b5 c0       	rjmp	.+362    	; 0x1a26 <_Z15process_commandPc+0x740>
    18bc:	b8 01       	movw	r22, r16
    18be:	8c e8       	ldi	r24, 0x8C	; 140
    18c0:	92 e0       	ldi	r25, 0x02	; 2
    18c2:	0e 94 47 11 	call	0x228e	; 0x228e <strcasecmp>
    18c6:	89 2b       	or	r24, r25
    18c8:	59 f4       	brne	.+22     	; 0x18e0 <_Z15process_commandPc+0x5fa>
    18ca:	ff 20       	and	r15, r15
    18cc:	49 f0       	breq	.+18     	; 0x18e0 <_Z15process_commandPc+0x5fa>
    18ce:	51 e0       	ldi	r21, 0x01	; 1
    18d0:	e5 12       	cpse	r14, r21
    18d2:	06 c0       	rjmp	.+12     	; 0x18e0 <_Z15process_commandPc+0x5fa>
    18d4:	c6 01       	movw	r24, r12
    18d6:	0e 94 29 11 	call	0x2252	; 0x2252 <atoi>
    18da:	41 e0       	ldi	r20, 0x01	; 1
    18dc:	61 e0       	ldi	r22, 0x01	; 1
    18de:	11 c0       	rjmp	.+34     	; 0x1902 <_Z15process_commandPc+0x61c>
    18e0:	b8 01       	movw	r22, r16
    18e2:	87 e9       	ldi	r24, 0x97	; 151
    18e4:	92 e0       	ldi	r25, 0x02	; 2
    18e6:	0e 94 47 11 	call	0x228e	; 0x228e <strcasecmp>
    18ea:	89 2b       	or	r24, r25
    18ec:	69 f4       	brne	.+26     	; 0x1908 <_Z15process_commandPc+0x622>
    18ee:	ff 20       	and	r15, r15
    18f0:	59 f0       	breq	.+22     	; 0x1908 <_Z15process_commandPc+0x622>
    18f2:	81 e0       	ldi	r24, 0x01	; 1
    18f4:	e8 12       	cpse	r14, r24
    18f6:	08 c0       	rjmp	.+16     	; 0x1908 <_Z15process_commandPc+0x622>
    18f8:	c6 01       	movw	r24, r12
    18fa:	0e 94 29 11 	call	0x2252	; 0x2252 <atoi>
    18fe:	41 e0       	ldi	r20, 0x01	; 1
    1900:	60 e0       	ldi	r22, 0x00	; 0
    1902:	0e 94 95 05 	call	0xb2a	; 0xb2a <_Z14pin_set_outputhhh>
    1906:	64 c0       	rjmp	.+200    	; 0x19d0 <_Z15process_commandPc+0x6ea>
    1908:	b8 01       	movw	r22, r16
    190a:	83 ea       	ldi	r24, 0xA3	; 163
    190c:	92 e0       	ldi	r25, 0x02	; 2
    190e:	0e 94 47 11 	call	0x228e	; 0x228e <strcasecmp>
    1912:	89 2b       	or	r24, r25
    1914:	39 f4       	brne	.+14     	; 0x1924 <_Z15process_commandPc+0x63e>
    1916:	f1 10       	cpse	r15, r1
    1918:	05 c0       	rjmp	.+10     	; 0x1924 <_Z15process_commandPc+0x63e>
    191a:	80 91 5f 03 	lds	r24, 0x035F	; 0x80035f <_ZL18VentWorkingCounter>
    191e:	90 91 60 03 	lds	r25, 0x0360	; 0x800360 <_ZL18VentWorkingCounter+0x1>
    1922:	1b c0       	rjmp	.+54     	; 0x195a <_Z15process_commandPc+0x674>
    1924:	b8 01       	movw	r22, r16
    1926:	86 eb       	ldi	r24, 0xB6	; 182
    1928:	92 e0       	ldi	r25, 0x02	; 2
    192a:	0e 94 47 11 	call	0x228e	; 0x228e <strcasecmp>
    192e:	89 2b       	or	r24, r25
    1930:	39 f4       	brne	.+14     	; 0x1940 <_Z15process_commandPc+0x65a>
    1932:	f1 10       	cpse	r15, r1
    1934:	05 c0       	rjmp	.+10     	; 0x1940 <_Z15process_commandPc+0x65a>
    1936:	80 91 70 03 	lds	r24, 0x0370	; 0x800370 <_ZL21SomebodyInTimeCounter>
    193a:	90 91 71 03 	lds	r25, 0x0371	; 0x800371 <_ZL21SomebodyInTimeCounter+0x1>
    193e:	0d c0       	rjmp	.+26     	; 0x195a <_Z15process_commandPc+0x674>
    1940:	b8 01       	movw	r22, r16
    1942:	8c ec       	ldi	r24, 0xCC	; 204
    1944:	92 e0       	ldi	r25, 0x02	; 2
    1946:	0e 94 47 11 	call	0x228e	; 0x228e <strcasecmp>
    194a:	89 2b       	or	r24, r25
    194c:	89 f4       	brne	.+34     	; 0x1970 <_Z15process_commandPc+0x68a>
    194e:	f1 10       	cpse	r15, r1
    1950:	0f c0       	rjmp	.+30     	; 0x1970 <_Z15process_commandPc+0x68a>
    1952:	80 91 6e 03 	lds	r24, 0x036E	; 0x80036e <_ZL35SomebodyInWithoutMotionDelayCounter>
    1956:	90 91 6f 03 	lds	r25, 0x036F	; 0x80036f <_ZL35SomebodyInWithoutMotionDelayCounter+0x1>
    195a:	4a e0       	ldi	r20, 0x0A	; 10
    195c:	50 e0       	ldi	r21, 0x00	; 0
    195e:	66 e7       	ldi	r22, 0x76	; 118
    1960:	73 e0       	ldi	r23, 0x03	; 3
    1962:	0e 94 5a 11 	call	0x22b4	; 0x22b4 <itoa>
    1966:	86 e7       	ldi	r24, 0x76	; 118
    1968:	93 e0       	ldi	r25, 0x03	; 3
    196a:	0e 94 f4 10 	call	0x21e8	; 0x21e8 <_Z9uart_putsPKc>
    196e:	5b c0       	rjmp	.+182    	; 0x1a26 <_Z15process_commandPc+0x740>
    1970:	be 01       	movw	r22, r28
    1972:	6e 5d       	subi	r22, 0xDE	; 222
    1974:	7f 4f       	sbci	r23, 0xFF	; 255
    1976:	87 ee       	ldi	r24, 0xE7	; 231
    1978:	92 e0       	ldi	r25, 0x02	; 2
    197a:	0e 94 47 11 	call	0x228e	; 0x228e <strcasecmp>
    197e:	89 2b       	or	r24, r25
    1980:	39 f4       	brne	.+14     	; 0x1990 <_Z15process_commandPc+0x6aa>
    1982:	f1 10       	cpse	r15, r1
    1984:	05 c0       	rjmp	.+10     	; 0x1990 <_Z15process_commandPc+0x6aa>
    1986:	80 91 72 03 	lds	r24, 0x0372	; 0x800372 <_ZL23LastActivityTimeCounter>
    198a:	90 91 73 03 	lds	r25, 0x0373	; 0x800373 <_ZL23LastActivityTimeCounter+0x1>
    198e:	e5 cf       	rjmp	.-54     	; 0x195a <_Z15process_commandPc+0x674>
    1990:	be 01       	movw	r22, r28
    1992:	6e 5d       	subi	r22, 0xDE	; 222
    1994:	7f 4f       	sbci	r23, 0xFF	; 255
    1996:	8f ef       	ldi	r24, 0xFF	; 255
    1998:	92 e0       	ldi	r25, 0x02	; 2
    199a:	0e 94 47 11 	call	0x228e	; 0x228e <strcasecmp>
    199e:	89 2b       	or	r24, r25
    19a0:	09 f0       	breq	.+2      	; 0x19a4 <_Z15process_commandPc+0x6be>
    19a2:	41 c0       	rjmp	.+130    	; 0x1a26 <_Z15process_commandPc+0x740>
    19a4:	f1 10       	cpse	r15, r1
    19a6:	3f c0       	rjmp	.+126    	; 0x1a26 <_Z15process_commandPc+0x740>
    19a8:	80 91 74 03 	lds	r24, 0x0374	; 0x800374 <_ZL8RoomMode>
    19ac:	4a e0       	ldi	r20, 0x0A	; 10
    19ae:	50 e0       	ldi	r21, 0x00	; 0
    19b0:	66 e7       	ldi	r22, 0x76	; 118
    19b2:	73 e0       	ldi	r23, 0x03	; 3
    19b4:	90 e0       	ldi	r25, 0x00	; 0
    19b6:	d5 cf       	rjmp	.-86     	; 0x1962 <_Z15process_commandPc+0x67c>
    19b8:	20 32       	cpi	r18, 0x20	; 32
    19ba:	08 f0       	brcs	.+2      	; 0x19be <_Z15process_commandPc+0x6d8>
    19bc:	c6 cc       	rjmp	.-1652   	; 0x134a <_Z15process_commandPc+0x64>
    19be:	a1 e0       	ldi	r26, 0x01	; 1
    19c0:	b0 e0       	ldi	r27, 0x00	; 0
    19c2:	ac 0f       	add	r26, r28
    19c4:	bd 1f       	adc	r27, r29
    19c6:	a2 0f       	add	r26, r18
    19c8:	b1 1d       	adc	r27, r1
    19ca:	3c 93       	st	X, r19
    19cc:	2f 5f       	subi	r18, 0xFF	; 255
    19ce:	bd cc       	rjmp	.-1670   	; 0x134a <_Z15process_commandPc+0x64>
    19d0:	df 92       	push	r13
    19d2:	cf 92       	push	r12
    19d4:	1f 93       	push	r17
    19d6:	0f 93       	push	r16
    19d8:	88 e0       	ldi	r24, 0x08	; 8
    19da:	93 e0       	ldi	r25, 0x03	; 3
    19dc:	9f 93       	push	r25
    19de:	8f 93       	push	r24
    19e0:	86 e7       	ldi	r24, 0x76	; 118
    19e2:	93 e0       	ldi	r25, 0x03	; 3
    19e4:	9f 93       	push	r25
    19e6:	8f 93       	push	r24
    19e8:	0e 94 92 11 	call	0x2324	; 0x2324 <sprintf>
    19ec:	86 e7       	ldi	r24, 0x76	; 118
    19ee:	93 e0       	ldi	r25, 0x03	; 3
    19f0:	0e 94 f4 10 	call	0x21e8	; 0x21e8 <_Z9uart_putsPKc>
    19f4:	0f b6       	in	r0, 0x3f	; 63
    19f6:	f8 94       	cli
    19f8:	de bf       	out	0x3e, r29	; 62
    19fa:	0f be       	out	0x3f, r0	; 63
    19fc:	cd bf       	out	0x3d, r28	; 61
    19fe:	10 92 10 03 	sts	0x0310, r1	; 0x800310 <__data_end>
    1a02:	ce 5b       	subi	r28, 0xBE	; 190
    1a04:	df 4f       	sbci	r29, 0xFF	; 255
    1a06:	0f b6       	in	r0, 0x3f	; 63
    1a08:	f8 94       	cli
    1a0a:	de bf       	out	0x3e, r29	; 62
    1a0c:	0f be       	out	0x3f, r0	; 63
    1a0e:	cd bf       	out	0x3d, r28	; 61
    1a10:	df 91       	pop	r29
    1a12:	cf 91       	pop	r28
    1a14:	1f 91       	pop	r17
    1a16:	0f 91       	pop	r16
    1a18:	ff 90       	pop	r15
    1a1a:	ef 90       	pop	r14
    1a1c:	df 90       	pop	r13
    1a1e:	cf 90       	pop	r12
    1a20:	bf 90       	pop	r11
    1a22:	af 90       	pop	r10
    1a24:	08 95       	ret
    1a26:	8a e0       	ldi	r24, 0x0A	; 10
    1a28:	0e 94 df 10 	call	0x21be	; 0x21be <_Z9uart_putch>
    1a2c:	e8 cf       	rjmp	.-48     	; 0x19fe <_Z15process_commandPc+0x718>

00001a2e <_Z22read_command_from_uartv>:
    1a2e:	cf 93       	push	r28
    1a30:	80 91 10 03 	lds	r24, 0x0310	; 0x800310 <__data_end>
    1a34:	82 30       	cpi	r24, 0x02	; 2
    1a36:	a1 f1       	breq	.+104    	; 0x1aa0 <_Z22read_command_from_uartv+0x72>
    1a38:	c1 e0       	ldi	r28, 0x01	; 1
    1a3a:	0e 94 c4 10 	call	0x2188	; 0x2188 <_Z9uart_getcv>
    1a3e:	9c 01       	movw	r18, r24
    1a40:	43 2f       	mov	r20, r19
    1a42:	55 27       	eor	r21, r21
    1a44:	47 fd       	sbrc	r20, 7
    1a46:	5a 95       	dec	r21
    1a48:	45 2b       	or	r20, r21
    1a4a:	39 f5       	brne	.+78     	; 0x1a9a <_Z22read_command_from_uartv+0x6c>
    1a4c:	c0 93 10 03 	sts	0x0310, r28	; 0x800310 <__data_end>
    1a50:	8d 30       	cpi	r24, 0x0D	; 13
    1a52:	99 f3       	breq	.-26     	; 0x1a3a <_Z22read_command_from_uartv+0xc>
    1a54:	e0 91 12 03 	lds	r30, 0x0312	; 0x800312 <_ZL18command_read_index>
    1a58:	8a 30       	cpi	r24, 0x0A	; 10
    1a5a:	89 f4       	brne	.+34     	; 0x1a7e <_Z22read_command_from_uartv+0x50>
    1a5c:	82 e0       	ldi	r24, 0x02	; 2
    1a5e:	80 93 10 03 	sts	0x0310, r24	; 0x800310 <__data_end>
    1a62:	e0 34       	cpi	r30, 0x40	; 64
    1a64:	38 f4       	brcc	.+14     	; 0x1a74 <_Z22read_command_from_uartv+0x46>
    1a66:	ae 2f       	mov	r26, r30
    1a68:	b0 e0       	ldi	r27, 0x00	; 0
    1a6a:	ad 5e       	subi	r26, 0xED	; 237
    1a6c:	bc 4f       	sbci	r27, 0xFC	; 252
    1a6e:	1c 92       	st	X, r1
    1a70:	ef 5f       	subi	r30, 0xFF	; 255
    1a72:	f7 cf       	rjmp	.-18     	; 0x1a62 <_Z22read_command_from_uartv+0x34>
    1a74:	83 e1       	ldi	r24, 0x13	; 19
    1a76:	93 e0       	ldi	r25, 0x03	; 3
    1a78:	cf 91       	pop	r28
    1a7a:	0c 94 73 09 	jmp	0x12e6	; 0x12e6 <_Z15process_commandPc>
    1a7e:	e0 34       	cpi	r30, 0x40	; 64
    1a80:	18 f0       	brcs	.+6      	; 0x1a88 <_Z22read_command_from_uartv+0x5a>
    1a82:	cf 91       	pop	r28
    1a84:	0c 94 67 09 	jmp	0x12ce	; 0x12ce <_Z21reset_command_readingv>
    1a88:	91 e0       	ldi	r25, 0x01	; 1
    1a8a:	9e 0f       	add	r25, r30
    1a8c:	90 93 12 03 	sts	0x0312, r25	; 0x800312 <_ZL18command_read_index>
    1a90:	f0 e0       	ldi	r31, 0x00	; 0
    1a92:	ed 5e       	subi	r30, 0xED	; 237
    1a94:	fc 4f       	sbci	r31, 0xFC	; 252
    1a96:	80 83       	st	Z, r24
    1a98:	d0 cf       	rjmp	.-96     	; 0x1a3a <_Z22read_command_from_uartv+0xc>
    1a9a:	21 15       	cp	r18, r1
    1a9c:	31 40       	sbci	r19, 0x01	; 1
    1a9e:	89 f7       	brne	.-30     	; 0x1a82 <_Z22read_command_from_uartv+0x54>
    1aa0:	cf 91       	pop	r28
    1aa2:	08 95       	ret

00001aa4 <_Z14init_port_pinsv>:
    1aa4:	8d e0       	ldi	r24, 0x0D	; 13
    1aa6:	90 e0       	ldi	r25, 0x00	; 0
    1aa8:	0e 94 77 14 	call	0x28ee	; 0x28ee <eeprom_read_byte>
    1aac:	60 e0       	ldi	r22, 0x00	; 0
    1aae:	0e 94 e5 07 	call	0xfca	; 0xfca <_Z24set_out_pin_level_confighh>
    1ab2:	55 9a       	sbi	0x0a, 5	; 10
    1ab4:	56 9a       	sbi	0x0a, 6	; 10
    1ab6:	57 9a       	sbi	0x0a, 7	; 10
    1ab8:	20 9a       	sbi	0x04, 0	; 4
    1aba:	21 9a       	sbi	0x04, 1	; 4
    1abc:	22 9a       	sbi	0x04, 2	; 4
    1abe:	23 9a       	sbi	0x04, 3	; 4
    1ac0:	24 9a       	sbi	0x04, 4	; 4
    1ac2:	60 91 06 01 	lds	r22, 0x0106	; 0x800106 <_ZL20out_pin_level_config>
    1ac6:	80 e0       	ldi	r24, 0x00	; 0
    1ac8:	0e 94 13 10 	call	0x2026	; 0x2026 <_Z18set_output_for_allhh>
    1acc:	3a 98       	cbi	0x07, 2	; 7
    1ace:	39 98       	cbi	0x07, 1	; 7
    1ad0:	3b 98       	cbi	0x07, 3	; 7
    1ad2:	25 9a       	sbi	0x04, 5	; 4
    1ad4:	52 9a       	sbi	0x0a, 2	; 10
    1ad6:	53 9a       	sbi	0x0a, 3	; 10
    1ad8:	54 9a       	sbi	0x0a, 4	; 10
    1ada:	e8 e6       	ldi	r30, 0x68	; 104
    1adc:	f0 e0       	ldi	r31, 0x00	; 0
    1ade:	80 81       	ld	r24, Z
    1ae0:	87 60       	ori	r24, 0x07	; 7
    1ae2:	80 83       	st	Z, r24
    1ae4:	ec e6       	ldi	r30, 0x6C	; 108
    1ae6:	f0 e0       	ldi	r31, 0x00	; 0
    1ae8:	80 81       	ld	r24, Z
    1aea:	8f 60       	ori	r24, 0x0F	; 15
    1aec:	80 83       	st	Z, r24
    1aee:	1b ba       	out	0x1b, r1	; 27
    1af0:	08 95       	ret

00001af2 <_Z9initTimerv>:
    1af2:	e1 e8       	ldi	r30, 0x81	; 129
    1af4:	f0 e0       	ldi	r31, 0x00	; 0
    1af6:	80 81       	ld	r24, Z
    1af8:	8d 60       	ori	r24, 0x0D	; 13
    1afa:	80 83       	st	Z, r24
    1afc:	10 92 80 00 	sts	0x0080, r1	; 0x800080 <__TEXT_REGION_LENGTH__+0x7e0080>
    1b00:	84 e9       	ldi	r24, 0x94	; 148
    1b02:	94 e0       	ldi	r25, 0x04	; 4
    1b04:	90 93 89 00 	sts	0x0089, r25	; 0x800089 <__TEXT_REGION_LENGTH__+0x7e0089>
    1b08:	80 93 88 00 	sts	0x0088, r24	; 0x800088 <__TEXT_REGION_LENGTH__+0x7e0088>
    1b0c:	10 92 85 00 	sts	0x0085, r1	; 0x800085 <__TEXT_REGION_LENGTH__+0x7e0085>
    1b10:	10 92 84 00 	sts	0x0084, r1	; 0x800084 <__TEXT_REGION_LENGTH__+0x7e0084>
    1b14:	ef e6       	ldi	r30, 0x6F	; 111
    1b16:	f0 e0       	ldi	r31, 0x00	; 0
    1b18:	80 81       	ld	r24, Z
    1b1a:	82 60       	ori	r24, 0x02	; 2
    1b1c:	80 83       	st	Z, r24
    1b1e:	10 92 6d 03 	sts	0x036D, r1	; 0x80036d <_ZL26milliseconds_timer_counter>
    1b22:	08 95       	ret

00001b24 <_Z19timer_on_each_100msv>:
    1b24:	80 91 11 03 	lds	r24, 0x0311	; 0x800311 <_ZL28command_read_timeout_counter>
    1b28:	81 11       	cpse	r24, r1
    1b2a:	04 c0       	rjmp	.+8      	; 0x1b34 <_Z19timer_on_each_100msv+0x10>
    1b2c:	82 e0       	ldi	r24, 0x02	; 2
    1b2e:	80 93 11 03 	sts	0x0311, r24	; 0x800311 <_ZL28command_read_timeout_counter>
    1b32:	07 c0       	rjmp	.+14     	; 0x1b42 <_Z19timer_on_each_100msv+0x1e>
    1b34:	81 50       	subi	r24, 0x01	; 1
    1b36:	80 93 11 03 	sts	0x0311, r24	; 0x800311 <_ZL28command_read_timeout_counter>
    1b3a:	81 11       	cpse	r24, r1
    1b3c:	02 c0       	rjmp	.+4      	; 0x1b42 <_Z19timer_on_each_100msv+0x1e>
    1b3e:	0e 94 67 09 	call	0x12ce	; 0x12ce <_Z21reset_command_readingv>
    1b42:	80 91 57 03 	lds	r24, 0x0357	; 0x800357 <_ZL25relax_light_timer_counter>
    1b46:	88 23       	and	r24, r24
    1b48:	59 f0       	breq	.+22     	; 0x1b60 <_Z19timer_on_each_100msv+0x3c>
    1b4a:	80 91 57 03 	lds	r24, 0x0357	; 0x800357 <_ZL25relax_light_timer_counter>
    1b4e:	81 50       	subi	r24, 0x01	; 1
    1b50:	80 93 57 03 	sts	0x0357, r24	; 0x800357 <_ZL25relax_light_timer_counter>
    1b54:	80 91 57 03 	lds	r24, 0x0357	; 0x800357 <_ZL25relax_light_timer_counter>
    1b58:	81 11       	cpse	r24, r1
    1b5a:	02 c0       	rjmp	.+4      	; 0x1b60 <_Z19timer_on_each_100msv+0x3c>
    1b5c:	0e 94 7c 07 	call	0xef8	; 0xef8 <_Z22check_relax_light_modeh>
    1b60:	80 91 5b 03 	lds	r24, 0x035B	; 0x80035b <led_door_event_counter>
    1b64:	88 23       	and	r24, r24
    1b66:	39 f0       	breq	.+14     	; 0x1b76 <_Z19timer_on_each_100msv+0x52>
    1b68:	5a 9a       	sbi	0x0b, 2	; 11
    1b6a:	80 91 5b 03 	lds	r24, 0x035B	; 0x80035b <led_door_event_counter>
    1b6e:	81 50       	subi	r24, 0x01	; 1
    1b70:	80 93 5b 03 	sts	0x035B, r24	; 0x80035b <led_door_event_counter>
    1b74:	01 c0       	rjmp	.+2      	; 0x1b78 <_Z19timer_on_each_100msv+0x54>
    1b76:	5a 98       	cbi	0x0b, 2	; 11
    1b78:	80 91 5a 03 	lds	r24, 0x035A	; 0x80035a <led_mov_event_counter>
    1b7c:	88 23       	and	r24, r24
    1b7e:	39 f0       	breq	.+14     	; 0x1b8e <_Z19timer_on_each_100msv+0x6a>
    1b80:	5b 9a       	sbi	0x0b, 3	; 11
    1b82:	80 91 5a 03 	lds	r24, 0x035A	; 0x80035a <led_mov_event_counter>
    1b86:	81 50       	subi	r24, 0x01	; 1
    1b88:	80 93 5a 03 	sts	0x035A, r24	; 0x80035a <led_mov_event_counter>
    1b8c:	01 c0       	rjmp	.+2      	; 0x1b90 <_Z19timer_on_each_100msv+0x6c>
    1b8e:	5b 98       	cbi	0x0b, 3	; 11
    1b90:	80 91 59 03 	lds	r24, 0x0359	; 0x800359 <led_hum_event_counter>
    1b94:	88 23       	and	r24, r24
    1b96:	39 f0       	breq	.+14     	; 0x1ba6 <_Z19timer_on_each_100msv+0x82>
    1b98:	5c 9a       	sbi	0x0b, 4	; 11
    1b9a:	80 91 59 03 	lds	r24, 0x0359	; 0x800359 <led_hum_event_counter>
    1b9e:	81 50       	subi	r24, 0x01	; 1
    1ba0:	80 93 59 03 	sts	0x0359, r24	; 0x800359 <led_hum_event_counter>
    1ba4:	08 95       	ret
    1ba6:	5c 98       	cbi	0x0b, 4	; 11
    1ba8:	08 95       	ret

00001baa <_Z20timer_on_each_10_secv>:
    1baa:	80 91 5c 03 	lds	r24, 0x035C	; 0x80035c <EventRegister>
    1bae:	84 60       	ori	r24, 0x04	; 4
    1bb0:	80 93 5c 03 	sts	0x035C, r24	; 0x80035c <EventRegister>
    1bb4:	08 95       	ret

00001bb6 <_Z20timer_on_each_1_hourv>:
    1bb6:	80 91 53 03 	lds	r24, 0x0353	; 0x800353 <_ZL20uptime_hours_counter>
    1bba:	90 91 54 03 	lds	r25, 0x0354	; 0x800354 <_ZL20uptime_hours_counter+0x1>
    1bbe:	01 96       	adiw	r24, 0x01	; 1
    1bc0:	90 93 54 03 	sts	0x0354, r25	; 0x800354 <_ZL20uptime_hours_counter+0x1>
    1bc4:	80 93 53 03 	sts	0x0353, r24	; 0x800353 <_ZL20uptime_hours_counter>
    1bc8:	08 95       	ret

00001bca <_Z18timer_on_each_1secv>:
    1bca:	80 91 55 03 	lds	r24, 0x0355	; 0x800355 <_ZL21seconds_timer_counter>
    1bce:	90 91 56 03 	lds	r25, 0x0356	; 0x800356 <_ZL21seconds_timer_counter+0x1>
    1bd2:	01 96       	adiw	r24, 0x01	; 1
    1bd4:	90 93 56 03 	sts	0x0356, r25	; 0x800356 <_ZL21seconds_timer_counter+0x1>
    1bd8:	80 93 55 03 	sts	0x0355, r24	; 0x800355 <_ZL21seconds_timer_counter>
    1bdc:	95 b1       	in	r25, 0x05	; 5
    1bde:	80 e2       	ldi	r24, 0x20	; 32
    1be0:	89 27       	eor	r24, r25
    1be2:	85 b9       	out	0x05, r24	; 5
    1be4:	80 91 74 03 	lds	r24, 0x0374	; 0x800374 <_ZL8RoomMode>
    1be8:	83 30       	cpi	r24, 0x03	; 3
    1bea:	51 f4       	brne	.+20     	; 0x1c00 <_Z18timer_on_each_1secv+0x36>
    1bec:	80 91 72 03 	lds	r24, 0x0372	; 0x800372 <_ZL23LastActivityTimeCounter>
    1bf0:	90 91 73 03 	lds	r25, 0x0373	; 0x800373 <_ZL23LastActivityTimeCounter+0x1>
    1bf4:	01 96       	adiw	r24, 0x01	; 1
    1bf6:	90 93 73 03 	sts	0x0373, r25	; 0x800373 <_ZL23LastActivityTimeCounter+0x1>
    1bfa:	80 93 72 03 	sts	0x0372, r24	; 0x800372 <_ZL23LastActivityTimeCounter>
    1bfe:	16 c0       	rjmp	.+44     	; 0x1c2c <_Z18timer_on_each_1secv+0x62>
    1c00:	80 91 74 03 	lds	r24, 0x0374	; 0x800374 <_ZL8RoomMode>
    1c04:	82 30       	cpi	r24, 0x02	; 2
    1c06:	91 f4       	brne	.+36     	; 0x1c2c <_Z18timer_on_each_1secv+0x62>
    1c08:	80 91 70 03 	lds	r24, 0x0370	; 0x800370 <_ZL21SomebodyInTimeCounter>
    1c0c:	90 91 71 03 	lds	r25, 0x0371	; 0x800371 <_ZL21SomebodyInTimeCounter+0x1>
    1c10:	01 96       	adiw	r24, 0x01	; 1
    1c12:	90 93 71 03 	sts	0x0371, r25	; 0x800371 <_ZL21SomebodyInTimeCounter+0x1>
    1c16:	80 93 70 03 	sts	0x0370, r24	; 0x800370 <_ZL21SomebodyInTimeCounter>
    1c1a:	80 91 6e 03 	lds	r24, 0x036E	; 0x80036e <_ZL35SomebodyInWithoutMotionDelayCounter>
    1c1e:	90 91 6f 03 	lds	r25, 0x036F	; 0x80036f <_ZL35SomebodyInWithoutMotionDelayCounter+0x1>
    1c22:	01 96       	adiw	r24, 0x01	; 1
    1c24:	90 93 6f 03 	sts	0x036F, r25	; 0x80036f <_ZL35SomebodyInWithoutMotionDelayCounter+0x1>
    1c28:	80 93 6e 03 	sts	0x036E, r24	; 0x80036e <_ZL35SomebodyInWithoutMotionDelayCounter>
    1c2c:	82 e0       	ldi	r24, 0x02	; 2
    1c2e:	0e 94 91 05 	call	0xb22	; 0xb22 <_Z19pin_check_output_onh>
    1c32:	88 23       	and	r24, r24
    1c34:	49 f0       	breq	.+18     	; 0x1c48 <_Z18timer_on_each_1secv+0x7e>
    1c36:	80 91 5f 03 	lds	r24, 0x035F	; 0x80035f <_ZL18VentWorkingCounter>
    1c3a:	90 91 60 03 	lds	r25, 0x0360	; 0x800360 <_ZL18VentWorkingCounter+0x1>
    1c3e:	01 96       	adiw	r24, 0x01	; 1
    1c40:	90 93 60 03 	sts	0x0360, r25	; 0x800360 <_ZL18VentWorkingCounter+0x1>
    1c44:	80 93 5f 03 	sts	0x035F, r24	; 0x80035f <_ZL18VentWorkingCounter>
    1c48:	80 91 01 01 	lds	r24, 0x0101	; 0x800101 <_ZL26MotionSensorDelayCounter_1>
    1c4c:	88 23       	and	r24, r24
    1c4e:	29 f0       	breq	.+10     	; 0x1c5a <_Z18timer_on_each_1secv+0x90>
    1c50:	80 91 01 01 	lds	r24, 0x0101	; 0x800101 <_ZL26MotionSensorDelayCounter_1>
    1c54:	81 50       	subi	r24, 0x01	; 1
    1c56:	80 93 01 01 	sts	0x0101, r24	; 0x800101 <_ZL26MotionSensorDelayCounter_1>
    1c5a:	80 91 00 01 	lds	r24, 0x0100	; 0x800100 <__data_start>
    1c5e:	88 23       	and	r24, r24
    1c60:	29 f0       	breq	.+10     	; 0x1c6c <_Z18timer_on_each_1secv+0xa2>
    1c62:	80 91 00 01 	lds	r24, 0x0100	; 0x800100 <__data_start>
    1c66:	81 50       	subi	r24, 0x01	; 1
    1c68:	80 93 00 01 	sts	0x0100, r24	; 0x800100 <__data_start>
    1c6c:	80 91 55 03 	lds	r24, 0x0355	; 0x800355 <_ZL21seconds_timer_counter>
    1c70:	90 91 56 03 	lds	r25, 0x0356	; 0x800356 <_ZL21seconds_timer_counter+0x1>
    1c74:	80 91 55 03 	lds	r24, 0x0355	; 0x800355 <_ZL21seconds_timer_counter>
    1c78:	90 91 56 03 	lds	r25, 0x0356	; 0x800356 <_ZL21seconds_timer_counter+0x1>
    1c7c:	6a e0       	ldi	r22, 0x0A	; 10
    1c7e:	70 e0       	ldi	r23, 0x00	; 0
    1c80:	0e 94 0f 11 	call	0x221e	; 0x221e <__udivmodhi4>
    1c84:	89 2b       	or	r24, r25
    1c86:	11 f4       	brne	.+4      	; 0x1c8c <_Z18timer_on_each_1secv+0xc2>
    1c88:	0e 94 d5 0d 	call	0x1baa	; 0x1baa <_Z20timer_on_each_10_secv>
    1c8c:	80 91 55 03 	lds	r24, 0x0355	; 0x800355 <_ZL21seconds_timer_counter>
    1c90:	90 91 56 03 	lds	r25, 0x0356	; 0x800356 <_ZL21seconds_timer_counter+0x1>
    1c94:	80 91 55 03 	lds	r24, 0x0355	; 0x800355 <_ZL21seconds_timer_counter>
    1c98:	90 91 56 03 	lds	r25, 0x0356	; 0x800356 <_ZL21seconds_timer_counter+0x1>
    1c9c:	80 31       	cpi	r24, 0x10	; 16
    1c9e:	9e 40       	sbci	r25, 0x0E	; 14
    1ca0:	30 f0       	brcs	.+12     	; 0x1cae <_Z18timer_on_each_1secv+0xe4>
    1ca2:	0e 94 db 0d 	call	0x1bb6	; 0x1bb6 <_Z20timer_on_each_1_hourv>
    1ca6:	10 92 56 03 	sts	0x0356, r1	; 0x800356 <_ZL21seconds_timer_counter+0x1>
    1caa:	10 92 55 03 	sts	0x0355, r1	; 0x800355 <_ZL21seconds_timer_counter>
    1cae:	08 95       	ret

00001cb0 <_Z22check_pcint_intteruptsv>:
    1cb0:	22 e0       	ldi	r18, 0x02	; 2
    1cb2:	42 e0       	ldi	r20, 0x02	; 2
    1cb4:	51 e0       	ldi	r21, 0x01	; 1
    1cb6:	63 e0       	ldi	r22, 0x03	; 3
    1cb8:	86 e2       	ldi	r24, 0x26	; 38
    1cba:	90 e0       	ldi	r25, 0x00	; 0
    1cbc:	0e 94 5c 05 	call	0xab8	; 0xab8 <_Z19check_pin_intteruptPVKhhPVhh>
    1cc0:	8f 3f       	cpi	r24, 0xFF	; 255
    1cc2:	29 f0       	breq	.+10     	; 0x1cce <_Z22check_pcint_intteruptsv+0x1e>
    1cc4:	80 91 5c 03 	lds	r24, 0x035C	; 0x80035c <EventRegister>
    1cc8:	81 60       	ori	r24, 0x01	; 1
    1cca:	80 93 5c 03 	sts	0x035C, r24	; 0x80035c <EventRegister>
    1cce:	23 e0       	ldi	r18, 0x03	; 3
    1cd0:	42 e0       	ldi	r20, 0x02	; 2
    1cd2:	51 e0       	ldi	r21, 0x01	; 1
    1cd4:	62 e0       	ldi	r22, 0x02	; 2
    1cd6:	86 e2       	ldi	r24, 0x26	; 38
    1cd8:	90 e0       	ldi	r25, 0x00	; 0
    1cda:	0e 94 5c 05 	call	0xab8	; 0xab8 <_Z19check_pin_intteruptPVKhhPVhh>
    1cde:	81 11       	cpse	r24, r1
    1ce0:	04 c0       	rjmp	.+8      	; 0x1cea <_Z22check_pcint_intteruptsv+0x3a>
    1ce2:	80 91 01 01 	lds	r24, 0x0101	; 0x800101 <_ZL26MotionSensorDelayCounter_1>
    1ce6:	88 23       	and	r24, r24
    1ce8:	79 f0       	breq	.+30     	; 0x1d08 <_Z22check_pcint_intteruptsv+0x58>
    1cea:	24 e0       	ldi	r18, 0x04	; 4
    1cec:	42 e0       	ldi	r20, 0x02	; 2
    1cee:	51 e0       	ldi	r21, 0x01	; 1
    1cf0:	61 e0       	ldi	r22, 0x01	; 1
    1cf2:	86 e2       	ldi	r24, 0x26	; 38
    1cf4:	90 e0       	ldi	r25, 0x00	; 0
    1cf6:	0e 94 5c 05 	call	0xab8	; 0xab8 <_Z19check_pin_intteruptPVKhhPVhh>
    1cfa:	81 11       	cpse	r24, r1
    1cfc:	10 c0       	rjmp	.+32     	; 0x1d1e <_Z22check_pcint_intteruptsv+0x6e>
    1cfe:	80 91 00 01 	lds	r24, 0x0100	; 0x800100 <__data_start>
    1d02:	88 23       	and	r24, r24
    1d04:	39 f0       	breq	.+14     	; 0x1d14 <_Z22check_pcint_intteruptsv+0x64>
    1d06:	08 95       	ret
    1d08:	80 91 5c 03 	lds	r24, 0x035C	; 0x80035c <EventRegister>
    1d0c:	82 60       	ori	r24, 0x02	; 2
    1d0e:	80 93 5c 03 	sts	0x035C, r24	; 0x80035c <EventRegister>
    1d12:	eb cf       	rjmp	.-42     	; 0x1cea <_Z22check_pcint_intteruptsv+0x3a>
    1d14:	80 91 5c 03 	lds	r24, 0x035C	; 0x80035c <EventRegister>
    1d18:	82 60       	ori	r24, 0x02	; 2
    1d1a:	80 93 5c 03 	sts	0x035C, r24	; 0x80035c <EventRegister>
    1d1e:	08 95       	ret

00001d20 <__vector_5>:
    1d20:	1f 92       	push	r1
    1d22:	0f 92       	push	r0
    1d24:	0f b6       	in	r0, 0x3f	; 63
    1d26:	0f 92       	push	r0
    1d28:	11 24       	eor	r1, r1
    1d2a:	2f 93       	push	r18
    1d2c:	3f 93       	push	r19
    1d2e:	4f 93       	push	r20
    1d30:	5f 93       	push	r21
    1d32:	6f 93       	push	r22
    1d34:	7f 93       	push	r23
    1d36:	8f 93       	push	r24
    1d38:	9f 93       	push	r25
    1d3a:	af 93       	push	r26
    1d3c:	bf 93       	push	r27
    1d3e:	ef 93       	push	r30
    1d40:	ff 93       	push	r31
    1d42:	0e 94 58 0e 	call	0x1cb0	; 0x1cb0 <_Z22check_pcint_intteruptsv>
    1d46:	ff 91       	pop	r31
    1d48:	ef 91       	pop	r30
    1d4a:	bf 91       	pop	r27
    1d4c:	af 91       	pop	r26
    1d4e:	9f 91       	pop	r25
    1d50:	8f 91       	pop	r24
    1d52:	7f 91       	pop	r23
    1d54:	6f 91       	pop	r22
    1d56:	5f 91       	pop	r21
    1d58:	4f 91       	pop	r20
    1d5a:	3f 91       	pop	r19
    1d5c:	2f 91       	pop	r18
    1d5e:	0f 90       	pop	r0
    1d60:	0f be       	out	0x3f, r0	; 63
    1d62:	0f 90       	pop	r0
    1d64:	1f 90       	pop	r1
    1d66:	18 95       	reti

00001d68 <__vector_4>:
    1d68:	1f 92       	push	r1
    1d6a:	0f 92       	push	r0
    1d6c:	0f b6       	in	r0, 0x3f	; 63
    1d6e:	0f 92       	push	r0
    1d70:	11 24       	eor	r1, r1
    1d72:	2f 93       	push	r18
    1d74:	3f 93       	push	r19
    1d76:	4f 93       	push	r20
    1d78:	5f 93       	push	r21
    1d7a:	6f 93       	push	r22
    1d7c:	7f 93       	push	r23
    1d7e:	8f 93       	push	r24
    1d80:	9f 93       	push	r25
    1d82:	af 93       	push	r26
    1d84:	bf 93       	push	r27
    1d86:	ef 93       	push	r30
    1d88:	ff 93       	push	r31
    1d8a:	0e 94 90 0e 	call	0x1d20	; 0x1d20 <__vector_5>
    1d8e:	ff 91       	pop	r31
    1d90:	ef 91       	pop	r30
    1d92:	bf 91       	pop	r27
    1d94:	af 91       	pop	r26
    1d96:	9f 91       	pop	r25
    1d98:	8f 91       	pop	r24
    1d9a:	7f 91       	pop	r23
    1d9c:	6f 91       	pop	r22
    1d9e:	5f 91       	pop	r21
    1da0:	4f 91       	pop	r20
    1da2:	3f 91       	pop	r19
    1da4:	2f 91       	pop	r18
    1da6:	0f 90       	pop	r0
    1da8:	0f be       	out	0x3f, r0	; 63
    1daa:	0f 90       	pop	r0
    1dac:	1f 90       	pop	r1
    1dae:	18 95       	reti

00001db0 <__vector_3>:
    1db0:	1f 92       	push	r1
    1db2:	0f 92       	push	r0
    1db4:	0f b6       	in	r0, 0x3f	; 63
    1db6:	0f 92       	push	r0
    1db8:	11 24       	eor	r1, r1
    1dba:	2f 93       	push	r18
    1dbc:	3f 93       	push	r19
    1dbe:	4f 93       	push	r20
    1dc0:	5f 93       	push	r21
    1dc2:	6f 93       	push	r22
    1dc4:	7f 93       	push	r23
    1dc6:	8f 93       	push	r24
    1dc8:	9f 93       	push	r25
    1dca:	af 93       	push	r26
    1dcc:	bf 93       	push	r27
    1dce:	ef 93       	push	r30
    1dd0:	ff 93       	push	r31
    1dd2:	0e 94 90 0e 	call	0x1d20	; 0x1d20 <__vector_5>
    1dd6:	ff 91       	pop	r31
    1dd8:	ef 91       	pop	r30
    1dda:	bf 91       	pop	r27
    1ddc:	af 91       	pop	r26
    1dde:	9f 91       	pop	r25
    1de0:	8f 91       	pop	r24
    1de2:	7f 91       	pop	r23
    1de4:	6f 91       	pop	r22
    1de6:	5f 91       	pop	r21
    1de8:	4f 91       	pop	r20
    1dea:	3f 91       	pop	r19
    1dec:	2f 91       	pop	r18
    1dee:	0f 90       	pop	r0
    1df0:	0f be       	out	0x3f, r0	; 63
    1df2:	0f 90       	pop	r0
    1df4:	1f 90       	pop	r1
    1df6:	18 95       	reti

00001df8 <__vector_11>:
    1df8:	1f 92       	push	r1
    1dfa:	0f 92       	push	r0
    1dfc:	0f b6       	in	r0, 0x3f	; 63
    1dfe:	0f 92       	push	r0
    1e00:	11 24       	eor	r1, r1
    1e02:	2f 93       	push	r18
    1e04:	3f 93       	push	r19
    1e06:	4f 93       	push	r20
    1e08:	5f 93       	push	r21
    1e0a:	6f 93       	push	r22
    1e0c:	7f 93       	push	r23
    1e0e:	8f 93       	push	r24
    1e10:	9f 93       	push	r25
    1e12:	af 93       	push	r26
    1e14:	bf 93       	push	r27
    1e16:	ef 93       	push	r30
    1e18:	ff 93       	push	r31
    1e1a:	0e 94 92 0d 	call	0x1b24	; 0x1b24 <_Z19timer_on_each_100msv>
    1e1e:	80 91 6d 03 	lds	r24, 0x036D	; 0x80036d <_ZL26milliseconds_timer_counter>
    1e22:	8f 5f       	subi	r24, 0xFF	; 255
    1e24:	80 93 6d 03 	sts	0x036D, r24	; 0x80036d <_ZL26milliseconds_timer_counter>
    1e28:	80 91 6d 03 	lds	r24, 0x036D	; 0x80036d <_ZL26milliseconds_timer_counter>
    1e2c:	8a 30       	cpi	r24, 0x0A	; 10
    1e2e:	21 f4       	brne	.+8      	; 0x1e38 <__vector_11+0x40>
    1e30:	0e 94 e5 0d 	call	0x1bca	; 0x1bca <_Z18timer_on_each_1secv>
    1e34:	10 92 6d 03 	sts	0x036D, r1	; 0x80036d <_ZL26milliseconds_timer_counter>
    1e38:	ff 91       	pop	r31
    1e3a:	ef 91       	pop	r30
    1e3c:	bf 91       	pop	r27
    1e3e:	af 91       	pop	r26
    1e40:	9f 91       	pop	r25
    1e42:	8f 91       	pop	r24
    1e44:	7f 91       	pop	r23
    1e46:	6f 91       	pop	r22
    1e48:	5f 91       	pop	r21
    1e4a:	4f 91       	pop	r20
    1e4c:	3f 91       	pop	r19
    1e4e:	2f 91       	pop	r18
    1e50:	0f 90       	pop	r0
    1e52:	0f be       	out	0x3f, r0	; 63
    1e54:	0f 90       	pop	r0
    1e56:	1f 90       	pop	r1
    1e58:	18 95       	reti

00001e5a <main>:
    1e5a:	0f b6       	in	r0, 0x3f	; 63
    1e5c:	f8 94       	cli
    1e5e:	a8 95       	wdr
    1e60:	80 91 60 00 	lds	r24, 0x0060	; 0x800060 <__TEXT_REGION_LENGTH__+0x7e0060>
    1e64:	88 61       	ori	r24, 0x18	; 24
    1e66:	80 93 60 00 	sts	0x0060, r24	; 0x800060 <__TEXT_REGION_LENGTH__+0x7e0060>
    1e6a:	10 92 60 00 	sts	0x0060, r1	; 0x800060 <__TEXT_REGION_LENGTH__+0x7e0060>
    1e6e:	0f be       	out	0x3f, r0	; 63
    1e70:	f8 94       	cli
    1e72:	0e 94 52 0d 	call	0x1aa4	; 0x1aa4 <_Z14init_port_pinsv>
    1e76:	86 e2       	ldi	r24, 0x26	; 38
    1e78:	90 e0       	ldi	r25, 0x00	; 0
    1e7a:	0e 94 ab 10 	call	0x2156	; 0x2156 <_Z9uart_initj>
    1e7e:	0e 94 f0 08 	call	0x11e0	; 0x11e0 <_Z22init_humidity_settingsv>
    1e82:	0e 94 12 09 	call	0x1224	; 0x1224 <_Z18init_vent_settingsv>
    1e86:	0e 94 35 09 	call	0x126a	; 0x126a <_Z25init_mode_counter_settingv>
    1e8a:	0e 94 43 09 	call	0x1286	; 0x1286 <_Z19init_music_settingsv>
    1e8e:	0e 94 4a 09 	call	0x1294	; 0x1294 <_Z19init_light_settingsv>
    1e92:	0e 94 5f 09 	call	0x12be	; 0x12be <_Z18init_door_settingsv>
    1e96:	0e 94 79 0d 	call	0x1af2	; 0x1af2 <_Z9initTimerv>
    1e9a:	80 b7       	in	r24, 0x30	; 48
    1e9c:	80 68       	ori	r24, 0x80	; 128
    1e9e:	80 bf       	out	0x30, r24	; 48
    1ea0:	83 b7       	in	r24, 0x33	; 51
    1ea2:	81 60       	ori	r24, 0x01	; 1
    1ea4:	83 bf       	out	0x33, r24	; 51
    1ea6:	78 94       	sei
    1ea8:	89 e5       	ldi	r24, 0x59	; 89
    1eaa:	9a e0       	ldi	r25, 0x0A	; 10
    1eac:	0e 94 00 11 	call	0x2200	; 0x2200 <_Z11uart_puts_pPKc>
    1eb0:	a8 95       	wdr
    1eb2:	f8 94       	cli
    1eb4:	80 91 5c 03 	lds	r24, 0x035C	; 0x80035c <EventRegister>
    1eb8:	80 ff       	sbrs	r24, 0
    1eba:	12 c0       	rjmp	.+36     	; 0x1ee0 <main+0x86>
    1ebc:	80 91 5c 03 	lds	r24, 0x035C	; 0x80035c <EventRegister>
    1ec0:	8e 7f       	andi	r24, 0xFE	; 254
    1ec2:	80 93 5c 03 	sts	0x035C, r24	; 0x80035c <EventRegister>
    1ec6:	8e e8       	ldi	r24, 0x8E	; 142
    1ec8:	99 e0       	ldi	r25, 0x09	; 9
    1eca:	0e 94 00 11 	call	0x2200	; 0x2200 <_Z11uart_puts_pPKc>
    1ece:	2f e7       	ldi	r18, 0x7F	; 127
    1ed0:	8f e4       	ldi	r24, 0x4F	; 79
    1ed2:	92 e1       	ldi	r25, 0x12	; 18
    1ed4:	21 50       	subi	r18, 0x01	; 1
    1ed6:	80 40       	sbci	r24, 0x00	; 0
    1ed8:	90 40       	sbci	r25, 0x00	; 0
    1eda:	e1 f7       	brne	.-8      	; 0x1ed4 <main+0x7a>
    1edc:	00 c0       	rjmp	.+0      	; 0x1ede <main+0x84>
    1ede:	00 00       	nop
    1ee0:	78 94       	sei
    1ee2:	0e 94 17 0d 	call	0x1a2e	; 0x1a2e <_Z22read_command_from_uartv>
    1ee6:	e4 cf       	rjmp	.-56     	; 0x1eb0 <main+0x56>

00001ee8 <_Z15find_pin_confighP9PinConfigh>:
    1ee8:	0f 93       	push	r16
    1eea:	1f 93       	push	r17
    1eec:	cf 93       	push	r28
    1eee:	df 93       	push	r29
    1ef0:	1f 92       	push	r1
    1ef2:	cd b7       	in	r28, 0x3d	; 61
    1ef4:	de b7       	in	r29, 0x3e	; 62
    1ef6:	98 2f       	mov	r25, r24
    1ef8:	db 01       	movw	r26, r22
    1efa:	08 2f       	mov	r16, r24
    1efc:	10 e0       	ldi	r17, 0x00	; 0
    1efe:	08 30       	cpi	r16, 0x08	; 8
    1f00:	11 05       	cpc	r17, r1
    1f02:	c8 f5       	brcc	.+114    	; 0x1f76 <_Z15find_pin_confighP9PinConfigh+0x8e>
    1f04:	f8 01       	movw	r30, r16
    1f06:	ec 5c       	subi	r30, 0xCC	; 204
    1f08:	ff 4f       	sbci	r31, 0xFF	; 255
    1f0a:	0c 94 23 11 	jmp	0x2246	; 0x2246 <__tablejump2__>
    1f0e:	85 e0       	ldi	r24, 0x05	; 5
    1f10:	01 c0       	rjmp	.+2      	; 0x1f14 <_Z15find_pin_confighP9PinConfigh+0x2c>
    1f12:	86 e0       	ldi	r24, 0x06	; 6
    1f14:	89 83       	std	Y+1, r24	; 0x01
    1f16:	29 e2       	ldi	r18, 0x29	; 41
    1f18:	30 e0       	ldi	r19, 0x00	; 0
    1f1a:	eb e2       	ldi	r30, 0x2B	; 43
    1f1c:	f0 e0       	ldi	r31, 0x00	; 0
    1f1e:	10 c0       	rjmp	.+32     	; 0x1f40 <_Z15find_pin_confighP9PinConfigh+0x58>
    1f20:	87 e0       	ldi	r24, 0x07	; 7
    1f22:	f8 cf       	rjmp	.-16     	; 0x1f14 <_Z15find_pin_confighP9PinConfigh+0x2c>
    1f24:	19 82       	std	Y+1, r1	; 0x01
    1f26:	08 c0       	rjmp	.+16     	; 0x1f38 <_Z15find_pin_confighP9PinConfigh+0x50>
    1f28:	81 e0       	ldi	r24, 0x01	; 1
    1f2a:	05 c0       	rjmp	.+10     	; 0x1f36 <_Z15find_pin_confighP9PinConfigh+0x4e>
    1f2c:	82 e0       	ldi	r24, 0x02	; 2
    1f2e:	03 c0       	rjmp	.+6      	; 0x1f36 <_Z15find_pin_confighP9PinConfigh+0x4e>
    1f30:	83 e0       	ldi	r24, 0x03	; 3
    1f32:	01 c0       	rjmp	.+2      	; 0x1f36 <_Z15find_pin_confighP9PinConfigh+0x4e>
    1f34:	84 e0       	ldi	r24, 0x04	; 4
    1f36:	89 83       	std	Y+1, r24	; 0x01
    1f38:	23 e2       	ldi	r18, 0x23	; 35
    1f3a:	30 e0       	ldi	r19, 0x00	; 0
    1f3c:	e5 e2       	ldi	r30, 0x25	; 37
    1f3e:	f0 e0       	ldi	r31, 0x00	; 0
    1f40:	9c 93       	st	X, r25
    1f42:	15 96       	adiw	r26, 0x05	; 5
    1f44:	fc 93       	st	X, r31
    1f46:	ee 93       	st	-X, r30
    1f48:	14 97       	sbiw	r26, 0x04	; 4
    1f4a:	13 96       	adiw	r26, 0x03	; 3
    1f4c:	3c 93       	st	X, r19
    1f4e:	2e 93       	st	-X, r18
    1f50:	12 97       	sbiw	r26, 0x02	; 2
    1f52:	89 81       	ldd	r24, Y+1	; 0x01
    1f54:	11 96       	adiw	r26, 0x01	; 1
    1f56:	8c 93       	st	X, r24
    1f58:	11 97       	sbiw	r26, 0x01	; 1
    1f5a:	21 e0       	ldi	r18, 0x01	; 1
    1f5c:	30 e0       	ldi	r19, 0x00	; 0
    1f5e:	b9 01       	movw	r22, r18
    1f60:	02 c0       	rjmp	.+4      	; 0x1f66 <_Z15find_pin_confighP9PinConfigh+0x7e>
    1f62:	66 0f       	add	r22, r22
    1f64:	77 1f       	adc	r23, r23
    1f66:	9a 95       	dec	r25
    1f68:	e2 f7       	brpl	.-8      	; 0x1f62 <_Z15find_pin_confighP9PinConfigh+0x7a>
    1f6a:	cb 01       	movw	r24, r22
    1f6c:	84 23       	and	r24, r20
    1f6e:	16 96       	adiw	r26, 0x06	; 6
    1f70:	8c 93       	st	X, r24
    1f72:	81 e0       	ldi	r24, 0x01	; 1
    1f74:	01 c0       	rjmp	.+2      	; 0x1f78 <_Z15find_pin_confighP9PinConfigh+0x90>
    1f76:	80 e0       	ldi	r24, 0x00	; 0
    1f78:	0f 90       	pop	r0
    1f7a:	df 91       	pop	r29
    1f7c:	cf 91       	pop	r28
    1f7e:	1f 91       	pop	r17
    1f80:	0f 91       	pop	r16
    1f82:	08 95       	ret

00001f84 <_Z10set_outputhhh>:
    1f84:	1f 93       	push	r17
    1f86:	cf 93       	push	r28
    1f88:	df 93       	push	r29
    1f8a:	cd b7       	in	r28, 0x3d	; 61
    1f8c:	de b7       	in	r29, 0x3e	; 62
    1f8e:	27 97       	sbiw	r28, 0x07	; 7
    1f90:	0f b6       	in	r0, 0x3f	; 63
    1f92:	f8 94       	cli
    1f94:	de bf       	out	0x3e, r29	; 62
    1f96:	0f be       	out	0x3f, r0	; 63
    1f98:	cd bf       	out	0x3d, r28	; 61
    1f9a:	16 2f       	mov	r17, r22
    1f9c:	be 01       	movw	r22, r28
    1f9e:	6f 5f       	subi	r22, 0xFF	; 255
    1fa0:	7f 4f       	sbci	r23, 0xFF	; 255
    1fa2:	0e 94 74 0f 	call	0x1ee8	; 0x1ee8 <_Z15find_pin_confighP9PinConfigh>
    1fa6:	88 23       	and	r24, r24
    1fa8:	a1 f1       	breq	.+104    	; 0x2012 <_Z10set_outputhhh+0x8e>
    1faa:	eb 81       	ldd	r30, Y+3	; 0x03
    1fac:	fc 81       	ldd	r31, Y+4	; 0x04
    1fae:	20 81       	ld	r18, Z
    1fb0:	81 e0       	ldi	r24, 0x01	; 1
    1fb2:	90 e0       	ldi	r25, 0x00	; 0
    1fb4:	0a 80       	ldd	r0, Y+2	; 0x02
    1fb6:	02 c0       	rjmp	.+4      	; 0x1fbc <_Z10set_outputhhh+0x38>
    1fb8:	88 0f       	add	r24, r24
    1fba:	99 1f       	adc	r25, r25
    1fbc:	0a 94       	dec	r0
    1fbe:	e2 f7       	brpl	.-8      	; 0x1fb8 <_Z10set_outputhhh+0x34>
    1fc0:	28 23       	and	r18, r24
    1fc2:	3f 81       	ldd	r19, Y+7	; 0x07
    1fc4:	33 23       	and	r19, r19
    1fc6:	29 f0       	breq	.+10     	; 0x1fd2 <_Z10set_outputhhh+0x4e>
    1fc8:	11 30       	cpi	r17, 0x01	; 1
    1fca:	69 f0       	breq	.+26     	; 0x1fe6 <_Z10set_outputhhh+0x62>
    1fcc:	11 11       	cpse	r17, r1
    1fce:	10 c0       	rjmp	.+32     	; 0x1ff0 <_Z10set_outputhhh+0x6c>
    1fd0:	02 c0       	rjmp	.+4      	; 0x1fd6 <_Z10set_outputhhh+0x52>
    1fd2:	11 30       	cpi	r17, 0x01	; 1
    1fd4:	31 f4       	brne	.+12     	; 0x1fe2 <_Z10set_outputhhh+0x5e>
    1fd6:	ed 81       	ldd	r30, Y+5	; 0x05
    1fd8:	fe 81       	ldd	r31, Y+6	; 0x06
    1fda:	90 81       	ld	r25, Z
    1fdc:	80 95       	com	r24
    1fde:	89 23       	and	r24, r25
    1fe0:	06 c0       	rjmp	.+12     	; 0x1fee <_Z10set_outputhhh+0x6a>
    1fe2:	11 11       	cpse	r17, r1
    1fe4:	05 c0       	rjmp	.+10     	; 0x1ff0 <_Z10set_outputhhh+0x6c>
    1fe6:	ed 81       	ldd	r30, Y+5	; 0x05
    1fe8:	fe 81       	ldd	r31, Y+6	; 0x06
    1fea:	90 81       	ld	r25, Z
    1fec:	89 2b       	or	r24, r25
    1fee:	80 83       	st	Z, r24
    1ff0:	eb 81       	ldd	r30, Y+3	; 0x03
    1ff2:	fc 81       	ldd	r31, Y+4	; 0x04
    1ff4:	30 81       	ld	r19, Z
    1ff6:	81 e0       	ldi	r24, 0x01	; 1
    1ff8:	90 e0       	ldi	r25, 0x00	; 0
    1ffa:	0a 80       	ldd	r0, Y+2	; 0x02
    1ffc:	02 c0       	rjmp	.+4      	; 0x2002 <_Z10set_outputhhh+0x7e>
    1ffe:	88 0f       	add	r24, r24
    2000:	99 1f       	adc	r25, r25
    2002:	0a 94       	dec	r0
    2004:	e2 f7       	brpl	.-8      	; 0x1ffe <_Z10set_outputhhh+0x7a>
    2006:	93 2f       	mov	r25, r19
    2008:	98 23       	and	r25, r24
    200a:	81 e0       	ldi	r24, 0x01	; 1
    200c:	92 13       	cpse	r25, r18
    200e:	01 c0       	rjmp	.+2      	; 0x2012 <_Z10set_outputhhh+0x8e>
    2010:	80 e0       	ldi	r24, 0x00	; 0
    2012:	27 96       	adiw	r28, 0x07	; 7
    2014:	0f b6       	in	r0, 0x3f	; 63
    2016:	f8 94       	cli
    2018:	de bf       	out	0x3e, r29	; 62
    201a:	0f be       	out	0x3f, r0	; 63
    201c:	cd bf       	out	0x3d, r28	; 61
    201e:	df 91       	pop	r29
    2020:	cf 91       	pop	r28
    2022:	1f 91       	pop	r17
    2024:	08 95       	ret

00002026 <_Z18set_output_for_allhh>:
    2026:	1f 93       	push	r17
    2028:	cf 93       	push	r28
    202a:	df 93       	push	r29
    202c:	d8 2f       	mov	r29, r24
    202e:	16 2f       	mov	r17, r22
    2030:	c0 e0       	ldi	r28, 0x00	; 0
    2032:	41 2f       	mov	r20, r17
    2034:	6d 2f       	mov	r22, r29
    2036:	8c 2f       	mov	r24, r28
    2038:	0e 94 c2 0f 	call	0x1f84	; 0x1f84 <_Z10set_outputhhh>
    203c:	cf 5f       	subi	r28, 0xFF	; 255
    203e:	c8 30       	cpi	r28, 0x08	; 8
    2040:	c1 f7       	brne	.-16     	; 0x2032 <_Z18set_output_for_allhh+0xc>
    2042:	df 91       	pop	r29
    2044:	cf 91       	pop	r28
    2046:	1f 91       	pop	r17
    2048:	08 95       	ret

0000204a <_Z15check_output_onhh>:
    204a:	cf 93       	push	r28
    204c:	df 93       	push	r29
    204e:	cd b7       	in	r28, 0x3d	; 61
    2050:	de b7       	in	r29, 0x3e	; 62
    2052:	27 97       	sbiw	r28, 0x07	; 7
    2054:	0f b6       	in	r0, 0x3f	; 63
    2056:	f8 94       	cli
    2058:	de bf       	out	0x3e, r29	; 62
    205a:	0f be       	out	0x3f, r0	; 63
    205c:	cd bf       	out	0x3d, r28	; 61
    205e:	46 2f       	mov	r20, r22
    2060:	be 01       	movw	r22, r28
    2062:	6f 5f       	subi	r22, 0xFF	; 255
    2064:	7f 4f       	sbci	r23, 0xFF	; 255
    2066:	0e 94 74 0f 	call	0x1ee8	; 0x1ee8 <_Z15find_pin_confighP9PinConfigh>
    206a:	88 23       	and	r24, r24
    206c:	b1 f0       	breq	.+44     	; 0x209a <_Z15check_output_onhh+0x50>
    206e:	ed 81       	ldd	r30, Y+5	; 0x05
    2070:	fe 81       	ldd	r31, Y+6	; 0x06
    2072:	20 81       	ld	r18, Z
    2074:	81 e0       	ldi	r24, 0x01	; 1
    2076:	90 e0       	ldi	r25, 0x00	; 0
    2078:	0a 80       	ldd	r0, Y+2	; 0x02
    207a:	02 c0       	rjmp	.+4      	; 0x2080 <_Z15check_output_onhh+0x36>
    207c:	88 0f       	add	r24, r24
    207e:	99 1f       	adc	r25, r25
    2080:	0a 94       	dec	r0
    2082:	e2 f7       	brpl	.-8      	; 0x207c <_Z15check_output_onhh+0x32>
    2084:	92 2f       	mov	r25, r18
    2086:	98 23       	and	r25, r24
    2088:	8f 81       	ldd	r24, Y+7	; 0x07
    208a:	81 11       	cpse	r24, r1
    208c:	05 c0       	rjmp	.+10     	; 0x2098 <_Z15check_output_onhh+0x4e>
    208e:	81 e0       	ldi	r24, 0x01	; 1
    2090:	99 23       	and	r25, r25
    2092:	19 f0       	breq	.+6      	; 0x209a <_Z15check_output_onhh+0x50>
    2094:	80 e0       	ldi	r24, 0x00	; 0
    2096:	01 c0       	rjmp	.+2      	; 0x209a <_Z15check_output_onhh+0x50>
    2098:	89 2f       	mov	r24, r25
    209a:	27 96       	adiw	r28, 0x07	; 7
    209c:	0f b6       	in	r0, 0x3f	; 63
    209e:	f8 94       	cli
    20a0:	de bf       	out	0x3e, r29	; 62
    20a2:	0f be       	out	0x3f, r0	; 63
    20a4:	cd bf       	out	0x3d, r28	; 61
    20a6:	df 91       	pop	r29
    20a8:	cf 91       	pop	r28
    20aa:	08 95       	ret

000020ac <__vector_18>:
    20ac:	1f 92       	push	r1
    20ae:	0f 92       	push	r0
    20b0:	0f b6       	in	r0, 0x3f	; 63
    20b2:	0f 92       	push	r0
    20b4:	11 24       	eor	r1, r1
    20b6:	2f 93       	push	r18
    20b8:	8f 93       	push	r24
    20ba:	9f 93       	push	r25
    20bc:	ef 93       	push	r30
    20be:	ff 93       	push	r31
    20c0:	80 91 c0 00 	lds	r24, 0x00C0	; 0x8000c0 <__TEXT_REGION_LENGTH__+0x7e00c0>
    20c4:	90 91 c6 00 	lds	r25, 0x00C6	; 0x8000c6 <__TEXT_REGION_LENGTH__+0x7e00c6>
    20c8:	88 71       	andi	r24, 0x18	; 24
    20ca:	e0 91 b8 03 	lds	r30, 0x03B8	; 0x8003b8 <_ZL11UART_RxHead>
    20ce:	ef 5f       	subi	r30, 0xFF	; 255
    20d0:	ef 73       	andi	r30, 0x3F	; 63
    20d2:	20 91 b7 03 	lds	r18, 0x03B7	; 0x8003b7 <_ZL11UART_RxTail>
    20d6:	e2 17       	cp	r30, r18
    20d8:	39 f0       	breq	.+14     	; 0x20e8 <__vector_18+0x3c>
    20da:	e0 93 b8 03 	sts	0x03B8, r30	; 0x8003b8 <_ZL11UART_RxHead>
    20de:	f0 e0       	ldi	r31, 0x00	; 0
    20e0:	e5 54       	subi	r30, 0x45	; 69
    20e2:	fc 4f       	sbci	r31, 0xFC	; 252
    20e4:	90 83       	st	Z, r25
    20e6:	01 c0       	rjmp	.+2      	; 0x20ea <__vector_18+0x3e>
    20e8:	82 e0       	ldi	r24, 0x02	; 2
    20ea:	80 93 b6 03 	sts	0x03B6, r24	; 0x8003b6 <_ZL16UART_LastRxError>
    20ee:	ff 91       	pop	r31
    20f0:	ef 91       	pop	r30
    20f2:	9f 91       	pop	r25
    20f4:	8f 91       	pop	r24
    20f6:	2f 91       	pop	r18
    20f8:	0f 90       	pop	r0
    20fa:	0f be       	out	0x3f, r0	; 63
    20fc:	0f 90       	pop	r0
    20fe:	1f 90       	pop	r1
    2100:	18 95       	reti

00002102 <__vector_19>:
    2102:	1f 92       	push	r1
    2104:	0f 92       	push	r0
    2106:	0f b6       	in	r0, 0x3f	; 63
    2108:	0f 92       	push	r0
    210a:	11 24       	eor	r1, r1
    210c:	8f 93       	push	r24
    210e:	9f 93       	push	r25
    2110:	ef 93       	push	r30
    2112:	ff 93       	push	r31
    2114:	90 91 ba 03 	lds	r25, 0x03BA	; 0x8003ba <_ZL11UART_TxHead>
    2118:	80 91 b9 03 	lds	r24, 0x03B9	; 0x8003b9 <_ZL11UART_TxTail>
    211c:	98 17       	cp	r25, r24
    211e:	69 f0       	breq	.+26     	; 0x213a <__vector_19+0x38>
    2120:	e0 91 b9 03 	lds	r30, 0x03B9	; 0x8003b9 <_ZL11UART_TxTail>
    2124:	ef 5f       	subi	r30, 0xFF	; 255
    2126:	ef 73       	andi	r30, 0x3F	; 63
    2128:	e0 93 b9 03 	sts	0x03B9, r30	; 0x8003b9 <_ZL11UART_TxTail>
    212c:	f0 e0       	ldi	r31, 0x00	; 0
    212e:	e5 50       	subi	r30, 0x05	; 5
    2130:	fc 4f       	sbci	r31, 0xFC	; 252
    2132:	80 81       	ld	r24, Z
    2134:	80 93 c6 00 	sts	0x00C6, r24	; 0x8000c6 <__TEXT_REGION_LENGTH__+0x7e00c6>
    2138:	05 c0       	rjmp	.+10     	; 0x2144 <__vector_19+0x42>
    213a:	80 91 c1 00 	lds	r24, 0x00C1	; 0x8000c1 <__TEXT_REGION_LENGTH__+0x7e00c1>
    213e:	8f 7d       	andi	r24, 0xDF	; 223
    2140:	80 93 c1 00 	sts	0x00C1, r24	; 0x8000c1 <__TEXT_REGION_LENGTH__+0x7e00c1>
    2144:	ff 91       	pop	r31
    2146:	ef 91       	pop	r30
    2148:	9f 91       	pop	r25
    214a:	8f 91       	pop	r24
    214c:	0f 90       	pop	r0
    214e:	0f be       	out	0x3f, r0	; 63
    2150:	0f 90       	pop	r0
    2152:	1f 90       	pop	r1
    2154:	18 95       	reti

00002156 <_Z9uart_initj>:
    2156:	10 92 ba 03 	sts	0x03BA, r1	; 0x8003ba <_ZL11UART_TxHead>
    215a:	10 92 b9 03 	sts	0x03B9, r1	; 0x8003b9 <_ZL11UART_TxTail>
    215e:	10 92 b8 03 	sts	0x03B8, r1	; 0x8003b8 <_ZL11UART_RxHead>
    2162:	10 92 b7 03 	sts	0x03B7, r1	; 0x8003b7 <_ZL11UART_RxTail>
    2166:	97 ff       	sbrs	r25, 7
    2168:	04 c0       	rjmp	.+8      	; 0x2172 <_Z9uart_initj+0x1c>
    216a:	22 e0       	ldi	r18, 0x02	; 2
    216c:	20 93 c0 00 	sts	0x00C0, r18	; 0x8000c0 <__TEXT_REGION_LENGTH__+0x7e00c0>
    2170:	9f 77       	andi	r25, 0x7F	; 127
    2172:	90 93 c5 00 	sts	0x00C5, r25	; 0x8000c5 <__TEXT_REGION_LENGTH__+0x7e00c5>
    2176:	80 93 c4 00 	sts	0x00C4, r24	; 0x8000c4 <__TEXT_REGION_LENGTH__+0x7e00c4>
    217a:	88 e9       	ldi	r24, 0x98	; 152
    217c:	80 93 c1 00 	sts	0x00C1, r24	; 0x8000c1 <__TEXT_REGION_LENGTH__+0x7e00c1>
    2180:	86 e0       	ldi	r24, 0x06	; 6
    2182:	80 93 c2 00 	sts	0x00C2, r24	; 0x8000c2 <__TEXT_REGION_LENGTH__+0x7e00c2>
    2186:	08 95       	ret

00002188 <_Z9uart_getcv>:
    2188:	90 91 b8 03 	lds	r25, 0x03B8	; 0x8003b8 <_ZL11UART_RxHead>
    218c:	80 91 b7 03 	lds	r24, 0x03B7	; 0x8003b7 <_ZL11UART_RxTail>
    2190:	98 17       	cp	r25, r24
    2192:	91 f0       	breq	.+36     	; 0x21b8 <_Z9uart_getcv+0x30>
    2194:	e0 91 b7 03 	lds	r30, 0x03B7	; 0x8003b7 <_ZL11UART_RxTail>
    2198:	ef 5f       	subi	r30, 0xFF	; 255
    219a:	ef 73       	andi	r30, 0x3F	; 63
    219c:	e0 93 b7 03 	sts	0x03B7, r30	; 0x8003b7 <_ZL11UART_RxTail>
    21a0:	f0 e0       	ldi	r31, 0x00	; 0
    21a2:	e5 54       	subi	r30, 0x45	; 69
    21a4:	fc 4f       	sbci	r31, 0xFC	; 252
    21a6:	20 81       	ld	r18, Z
    21a8:	80 91 b6 03 	lds	r24, 0x03B6	; 0x8003b6 <_ZL16UART_LastRxError>
    21ac:	90 e0       	ldi	r25, 0x00	; 0
    21ae:	98 2f       	mov	r25, r24
    21b0:	88 27       	eor	r24, r24
    21b2:	82 0f       	add	r24, r18
    21b4:	91 1d       	adc	r25, r1
    21b6:	08 95       	ret
    21b8:	80 e0       	ldi	r24, 0x00	; 0
    21ba:	91 e0       	ldi	r25, 0x01	; 1
    21bc:	08 95       	ret

000021be <_Z9uart_putch>:
    21be:	90 91 ba 03 	lds	r25, 0x03BA	; 0x8003ba <_ZL11UART_TxHead>
    21c2:	9f 5f       	subi	r25, 0xFF	; 255
    21c4:	9f 73       	andi	r25, 0x3F	; 63
    21c6:	20 91 b9 03 	lds	r18, 0x03B9	; 0x8003b9 <_ZL11UART_TxTail>
    21ca:	92 17       	cp	r25, r18
    21cc:	e1 f3       	breq	.-8      	; 0x21c6 <_Z9uart_putch+0x8>
    21ce:	e9 2f       	mov	r30, r25
    21d0:	f0 e0       	ldi	r31, 0x00	; 0
    21d2:	e5 50       	subi	r30, 0x05	; 5
    21d4:	fc 4f       	sbci	r31, 0xFC	; 252
    21d6:	80 83       	st	Z, r24
    21d8:	90 93 ba 03 	sts	0x03BA, r25	; 0x8003ba <_ZL11UART_TxHead>
    21dc:	80 91 c1 00 	lds	r24, 0x00C1	; 0x8000c1 <__TEXT_REGION_LENGTH__+0x7e00c1>
    21e0:	80 62       	ori	r24, 0x20	; 32
    21e2:	80 93 c1 00 	sts	0x00C1, r24	; 0x8000c1 <__TEXT_REGION_LENGTH__+0x7e00c1>
    21e6:	08 95       	ret

000021e8 <_Z9uart_putsPKc>:
    21e8:	cf 93       	push	r28
    21ea:	df 93       	push	r29
    21ec:	ec 01       	movw	r28, r24
    21ee:	89 91       	ld	r24, Y+
    21f0:	88 23       	and	r24, r24
    21f2:	19 f0       	breq	.+6      	; 0x21fa <_Z9uart_putsPKc+0x12>
    21f4:	0e 94 df 10 	call	0x21be	; 0x21be <_Z9uart_putch>
    21f8:	fa cf       	rjmp	.-12     	; 0x21ee <_Z9uart_putsPKc+0x6>
    21fa:	df 91       	pop	r29
    21fc:	cf 91       	pop	r28
    21fe:	08 95       	ret

00002200 <_Z11uart_puts_pPKc>:
    2200:	cf 93       	push	r28
    2202:	df 93       	push	r29
    2204:	fc 01       	movw	r30, r24
    2206:	84 91       	lpm	r24, Z
    2208:	ef 01       	movw	r28, r30
    220a:	21 96       	adiw	r28, 0x01	; 1
    220c:	88 23       	and	r24, r24
    220e:	21 f0       	breq	.+8      	; 0x2218 <_Z11uart_puts_pPKc+0x18>
    2210:	0e 94 df 10 	call	0x21be	; 0x21be <_Z9uart_putch>
    2214:	fe 01       	movw	r30, r28
    2216:	f7 cf       	rjmp	.-18     	; 0x2206 <_Z11uart_puts_pPKc+0x6>
    2218:	df 91       	pop	r29
    221a:	cf 91       	pop	r28
    221c:	08 95       	ret

0000221e <__udivmodhi4>:
    221e:	aa 1b       	sub	r26, r26
    2220:	bb 1b       	sub	r27, r27
    2222:	51 e1       	ldi	r21, 0x11	; 17
    2224:	07 c0       	rjmp	.+14     	; 0x2234 <__udivmodhi4_ep>

00002226 <__udivmodhi4_loop>:
    2226:	aa 1f       	adc	r26, r26
    2228:	bb 1f       	adc	r27, r27
    222a:	a6 17       	cp	r26, r22
    222c:	b7 07       	cpc	r27, r23
    222e:	10 f0       	brcs	.+4      	; 0x2234 <__udivmodhi4_ep>
    2230:	a6 1b       	sub	r26, r22
    2232:	b7 0b       	sbc	r27, r23

00002234 <__udivmodhi4_ep>:
    2234:	88 1f       	adc	r24, r24
    2236:	99 1f       	adc	r25, r25
    2238:	5a 95       	dec	r21
    223a:	a9 f7       	brne	.-22     	; 0x2226 <__udivmodhi4_loop>
    223c:	80 95       	com	r24
    223e:	90 95       	com	r25
    2240:	bc 01       	movw	r22, r24
    2242:	cd 01       	movw	r24, r26
    2244:	08 95       	ret

00002246 <__tablejump2__>:
    2246:	ee 0f       	add	r30, r30
    2248:	ff 1f       	adc	r31, r31
    224a:	05 90       	lpm	r0, Z+
    224c:	f4 91       	lpm	r31, Z
    224e:	e0 2d       	mov	r30, r0
    2250:	09 94       	ijmp

00002252 <atoi>:
    2252:	fc 01       	movw	r30, r24
    2254:	88 27       	eor	r24, r24
    2256:	99 27       	eor	r25, r25
    2258:	e8 94       	clt
    225a:	21 91       	ld	r18, Z+
    225c:	20 32       	cpi	r18, 0x20	; 32
    225e:	e9 f3       	breq	.-6      	; 0x225a <atoi+0x8>
    2260:	29 30       	cpi	r18, 0x09	; 9
    2262:	10 f0       	brcs	.+4      	; 0x2268 <atoi+0x16>
    2264:	2e 30       	cpi	r18, 0x0E	; 14
    2266:	c8 f3       	brcs	.-14     	; 0x225a <atoi+0x8>
    2268:	2b 32       	cpi	r18, 0x2B	; 43
    226a:	41 f0       	breq	.+16     	; 0x227c <atoi+0x2a>
    226c:	2d 32       	cpi	r18, 0x2D	; 45
    226e:	39 f4       	brne	.+14     	; 0x227e <atoi+0x2c>
    2270:	68 94       	set
    2272:	04 c0       	rjmp	.+8      	; 0x227c <atoi+0x2a>
    2274:	0e 94 70 11 	call	0x22e0	; 0x22e0 <__mulhi_const_10>
    2278:	82 0f       	add	r24, r18
    227a:	91 1d       	adc	r25, r1
    227c:	21 91       	ld	r18, Z+
    227e:	20 53       	subi	r18, 0x30	; 48
    2280:	2a 30       	cpi	r18, 0x0A	; 10
    2282:	c0 f3       	brcs	.-16     	; 0x2274 <atoi+0x22>
    2284:	1e f4       	brtc	.+6      	; 0x228c <atoi+0x3a>
    2286:	90 95       	com	r25
    2288:	81 95       	neg	r24
    228a:	9f 4f       	sbci	r25, 0xFF	; 255
    228c:	08 95       	ret

0000228e <strcasecmp>:
    228e:	fb 01       	movw	r30, r22
    2290:	dc 01       	movw	r26, r24
    2292:	8d 91       	ld	r24, X+
    2294:	81 34       	cpi	r24, 0x41	; 65
    2296:	1c f0       	brlt	.+6      	; 0x229e <strcasecmp+0x10>
    2298:	8b 35       	cpi	r24, 0x5B	; 91
    229a:	0c f4       	brge	.+2      	; 0x229e <strcasecmp+0x10>
    229c:	80 5e       	subi	r24, 0xE0	; 224
    229e:	61 91       	ld	r22, Z+
    22a0:	61 34       	cpi	r22, 0x41	; 65
    22a2:	1c f0       	brlt	.+6      	; 0x22aa <strcasecmp+0x1c>
    22a4:	6b 35       	cpi	r22, 0x5B	; 91
    22a6:	0c f4       	brge	.+2      	; 0x22aa <strcasecmp+0x1c>
    22a8:	60 5e       	subi	r22, 0xE0	; 224
    22aa:	86 1b       	sub	r24, r22
    22ac:	61 11       	cpse	r22, r1
    22ae:	89 f3       	breq	.-30     	; 0x2292 <strcasecmp+0x4>
    22b0:	99 0b       	sbc	r25, r25
    22b2:	08 95       	ret

000022b4 <itoa>:
    22b4:	45 32       	cpi	r20, 0x25	; 37
    22b6:	51 05       	cpc	r21, r1
    22b8:	20 f4       	brcc	.+8      	; 0x22c2 <itoa+0xe>
    22ba:	42 30       	cpi	r20, 0x02	; 2
    22bc:	10 f0       	brcs	.+4      	; 0x22c2 <itoa+0xe>
    22be:	0c 94 65 11 	jmp	0x22ca	; 0x22ca <__itoa_ncheck>
    22c2:	fb 01       	movw	r30, r22
    22c4:	10 82       	st	Z, r1
    22c6:	cb 01       	movw	r24, r22
    22c8:	08 95       	ret

000022ca <__itoa_ncheck>:
    22ca:	bb 27       	eor	r27, r27
    22cc:	4a 30       	cpi	r20, 0x0A	; 10
    22ce:	31 f4       	brne	.+12     	; 0x22dc <__itoa_ncheck+0x12>
    22d0:	99 23       	and	r25, r25
    22d2:	22 f4       	brpl	.+8      	; 0x22dc <__itoa_ncheck+0x12>
    22d4:	bd e2       	ldi	r27, 0x2D	; 45
    22d6:	90 95       	com	r25
    22d8:	81 95       	neg	r24
    22da:	9f 4f       	sbci	r25, 0xFF	; 255
    22dc:	0c 94 79 11 	jmp	0x22f2	; 0x22f2 <__utoa_common>

000022e0 <__mulhi_const_10>:
    22e0:	7a e0       	ldi	r23, 0x0A	; 10
    22e2:	97 9f       	mul	r25, r23
    22e4:	90 2d       	mov	r25, r0
    22e6:	87 9f       	mul	r24, r23
    22e8:	80 2d       	mov	r24, r0
    22ea:	91 0d       	add	r25, r1
    22ec:	11 24       	eor	r1, r1
    22ee:	08 95       	ret

000022f0 <__utoa_ncheck>:
    22f0:	bb 27       	eor	r27, r27

000022f2 <__utoa_common>:
    22f2:	fb 01       	movw	r30, r22
    22f4:	55 27       	eor	r21, r21
    22f6:	aa 27       	eor	r26, r26
    22f8:	88 0f       	add	r24, r24
    22fa:	99 1f       	adc	r25, r25
    22fc:	aa 1f       	adc	r26, r26
    22fe:	a4 17       	cp	r26, r20
    2300:	10 f0       	brcs	.+4      	; 0x2306 <__utoa_common+0x14>
    2302:	a4 1b       	sub	r26, r20
    2304:	83 95       	inc	r24
    2306:	50 51       	subi	r21, 0x10	; 16
    2308:	b9 f7       	brne	.-18     	; 0x22f8 <__utoa_common+0x6>
    230a:	a0 5d       	subi	r26, 0xD0	; 208
    230c:	aa 33       	cpi	r26, 0x3A	; 58
    230e:	08 f0       	brcs	.+2      	; 0x2312 <__utoa_common+0x20>
    2310:	a9 5d       	subi	r26, 0xD9	; 217
    2312:	a1 93       	st	Z+, r26
    2314:	00 97       	sbiw	r24, 0x00	; 0
    2316:	79 f7       	brne	.-34     	; 0x22f6 <__utoa_common+0x4>
    2318:	b1 11       	cpse	r27, r1
    231a:	b1 93       	st	Z+, r27
    231c:	11 92       	st	Z+, r1
    231e:	cb 01       	movw	r24, r22
    2320:	0c 94 cd 13 	jmp	0x279a	; 0x279a <strrev>

00002324 <sprintf>:
    2324:	ae e0       	ldi	r26, 0x0E	; 14
    2326:	b0 e0       	ldi	r27, 0x00	; 0
    2328:	e8 e9       	ldi	r30, 0x98	; 152
    232a:	f1 e1       	ldi	r31, 0x11	; 17
    232c:	0c 94 9f 14 	jmp	0x293e	; 0x293e <__prologue_saves__+0x1c>
    2330:	0d 89       	ldd	r16, Y+21	; 0x15
    2332:	1e 89       	ldd	r17, Y+22	; 0x16
    2334:	86 e0       	ldi	r24, 0x06	; 6
    2336:	8c 83       	std	Y+4, r24	; 0x04
    2338:	1a 83       	std	Y+2, r17	; 0x02
    233a:	09 83       	std	Y+1, r16	; 0x01
    233c:	8f ef       	ldi	r24, 0xFF	; 255
    233e:	9f e7       	ldi	r25, 0x7F	; 127
    2340:	9e 83       	std	Y+6, r25	; 0x06
    2342:	8d 83       	std	Y+5, r24	; 0x05
    2344:	ae 01       	movw	r20, r28
    2346:	47 5e       	subi	r20, 0xE7	; 231
    2348:	5f 4f       	sbci	r21, 0xFF	; 255
    234a:	6f 89       	ldd	r22, Y+23	; 0x17
    234c:	78 8d       	ldd	r23, Y+24	; 0x18
    234e:	ce 01       	movw	r24, r28
    2350:	01 96       	adiw	r24, 0x01	; 1
    2352:	0e 94 d6 11 	call	0x23ac	; 0x23ac <vfprintf>
    2356:	ef 81       	ldd	r30, Y+7	; 0x07
    2358:	f8 85       	ldd	r31, Y+8	; 0x08
    235a:	e0 0f       	add	r30, r16
    235c:	f1 1f       	adc	r31, r17
    235e:	10 82       	st	Z, r1
    2360:	2e 96       	adiw	r28, 0x0e	; 14
    2362:	e4 e0       	ldi	r30, 0x04	; 4
    2364:	0c 94 bb 14 	jmp	0x2976	; 0x2976 <__epilogue_restores__+0x1c>

00002368 <sprintf_P>:
    2368:	ae e0       	ldi	r26, 0x0E	; 14
    236a:	b0 e0       	ldi	r27, 0x00	; 0
    236c:	ea eb       	ldi	r30, 0xBA	; 186
    236e:	f1 e1       	ldi	r31, 0x11	; 17
    2370:	0c 94 9f 14 	jmp	0x293e	; 0x293e <__prologue_saves__+0x1c>
    2374:	0d 89       	ldd	r16, Y+21	; 0x15
    2376:	1e 89       	ldd	r17, Y+22	; 0x16
    2378:	8e e0       	ldi	r24, 0x0E	; 14
    237a:	8c 83       	std	Y+4, r24	; 0x04
    237c:	1a 83       	std	Y+2, r17	; 0x02
    237e:	09 83       	std	Y+1, r16	; 0x01
    2380:	8f ef       	ldi	r24, 0xFF	; 255
    2382:	9f e7       	ldi	r25, 0x7F	; 127
    2384:	9e 83       	std	Y+6, r25	; 0x06
    2386:	8d 83       	std	Y+5, r24	; 0x05
    2388:	ae 01       	movw	r20, r28
    238a:	47 5e       	subi	r20, 0xE7	; 231
    238c:	5f 4f       	sbci	r21, 0xFF	; 255
    238e:	6f 89       	ldd	r22, Y+23	; 0x17
    2390:	78 8d       	ldd	r23, Y+24	; 0x18
    2392:	ce 01       	movw	r24, r28
    2394:	01 96       	adiw	r24, 0x01	; 1
    2396:	0e 94 d6 11 	call	0x23ac	; 0x23ac <vfprintf>
    239a:	ef 81       	ldd	r30, Y+7	; 0x07
    239c:	f8 85       	ldd	r31, Y+8	; 0x08
    239e:	e0 0f       	add	r30, r16
    23a0:	f1 1f       	adc	r31, r17
    23a2:	10 82       	st	Z, r1
    23a4:	2e 96       	adiw	r28, 0x0e	; 14
    23a6:	e4 e0       	ldi	r30, 0x04	; 4
    23a8:	0c 94 bb 14 	jmp	0x2976	; 0x2976 <__epilogue_restores__+0x1c>

000023ac <vfprintf>:
    23ac:	ab e0       	ldi	r26, 0x0B	; 11
    23ae:	b0 e0       	ldi	r27, 0x00	; 0
    23b0:	ec ed       	ldi	r30, 0xDC	; 220
    23b2:	f1 e1       	ldi	r31, 0x11	; 17
    23b4:	0c 94 91 14 	jmp	0x2922	; 0x2922 <__prologue_saves__>
    23b8:	6c 01       	movw	r12, r24
    23ba:	7b 01       	movw	r14, r22
    23bc:	8a 01       	movw	r16, r20
    23be:	fc 01       	movw	r30, r24
    23c0:	17 82       	std	Z+7, r1	; 0x07
    23c2:	16 82       	std	Z+6, r1	; 0x06
    23c4:	83 81       	ldd	r24, Z+3	; 0x03
    23c6:	81 ff       	sbrs	r24, 1
    23c8:	cc c1       	rjmp	.+920    	; 0x2762 <vfprintf+0x3b6>
    23ca:	ce 01       	movw	r24, r28
    23cc:	01 96       	adiw	r24, 0x01	; 1
    23ce:	3c 01       	movw	r6, r24
    23d0:	f6 01       	movw	r30, r12
    23d2:	93 81       	ldd	r25, Z+3	; 0x03
    23d4:	f7 01       	movw	r30, r14
    23d6:	93 fd       	sbrc	r25, 3
    23d8:	85 91       	lpm	r24, Z+
    23da:	93 ff       	sbrs	r25, 3
    23dc:	81 91       	ld	r24, Z+
    23de:	7f 01       	movw	r14, r30
    23e0:	88 23       	and	r24, r24
    23e2:	09 f4       	brne	.+2      	; 0x23e6 <vfprintf+0x3a>
    23e4:	ba c1       	rjmp	.+884    	; 0x275a <vfprintf+0x3ae>
    23e6:	85 32       	cpi	r24, 0x25	; 37
    23e8:	39 f4       	brne	.+14     	; 0x23f8 <vfprintf+0x4c>
    23ea:	93 fd       	sbrc	r25, 3
    23ec:	85 91       	lpm	r24, Z+
    23ee:	93 ff       	sbrs	r25, 3
    23f0:	81 91       	ld	r24, Z+
    23f2:	7f 01       	movw	r14, r30
    23f4:	85 32       	cpi	r24, 0x25	; 37
    23f6:	29 f4       	brne	.+10     	; 0x2402 <vfprintf+0x56>
    23f8:	b6 01       	movw	r22, r12
    23fa:	90 e0       	ldi	r25, 0x00	; 0
    23fc:	0e 94 dd 13 	call	0x27ba	; 0x27ba <fputc>
    2400:	e7 cf       	rjmp	.-50     	; 0x23d0 <vfprintf+0x24>
    2402:	91 2c       	mov	r9, r1
    2404:	21 2c       	mov	r2, r1
    2406:	31 2c       	mov	r3, r1
    2408:	ff e1       	ldi	r31, 0x1F	; 31
    240a:	f3 15       	cp	r31, r3
    240c:	d8 f0       	brcs	.+54     	; 0x2444 <vfprintf+0x98>
    240e:	8b 32       	cpi	r24, 0x2B	; 43
    2410:	79 f0       	breq	.+30     	; 0x2430 <vfprintf+0x84>
    2412:	38 f4       	brcc	.+14     	; 0x2422 <vfprintf+0x76>
    2414:	80 32       	cpi	r24, 0x20	; 32
    2416:	79 f0       	breq	.+30     	; 0x2436 <vfprintf+0x8a>
    2418:	83 32       	cpi	r24, 0x23	; 35
    241a:	a1 f4       	brne	.+40     	; 0x2444 <vfprintf+0x98>
    241c:	23 2d       	mov	r18, r3
    241e:	20 61       	ori	r18, 0x10	; 16
    2420:	1d c0       	rjmp	.+58     	; 0x245c <vfprintf+0xb0>
    2422:	8d 32       	cpi	r24, 0x2D	; 45
    2424:	61 f0       	breq	.+24     	; 0x243e <vfprintf+0x92>
    2426:	80 33       	cpi	r24, 0x30	; 48
    2428:	69 f4       	brne	.+26     	; 0x2444 <vfprintf+0x98>
    242a:	23 2d       	mov	r18, r3
    242c:	21 60       	ori	r18, 0x01	; 1
    242e:	16 c0       	rjmp	.+44     	; 0x245c <vfprintf+0xb0>
    2430:	83 2d       	mov	r24, r3
    2432:	82 60       	ori	r24, 0x02	; 2
    2434:	38 2e       	mov	r3, r24
    2436:	e3 2d       	mov	r30, r3
    2438:	e4 60       	ori	r30, 0x04	; 4
    243a:	3e 2e       	mov	r3, r30
    243c:	2a c0       	rjmp	.+84     	; 0x2492 <vfprintf+0xe6>
    243e:	f3 2d       	mov	r31, r3
    2440:	f8 60       	ori	r31, 0x08	; 8
    2442:	1d c0       	rjmp	.+58     	; 0x247e <vfprintf+0xd2>
    2444:	37 fc       	sbrc	r3, 7
    2446:	2d c0       	rjmp	.+90     	; 0x24a2 <vfprintf+0xf6>
    2448:	20 ed       	ldi	r18, 0xD0	; 208
    244a:	28 0f       	add	r18, r24
    244c:	2a 30       	cpi	r18, 0x0A	; 10
    244e:	40 f0       	brcs	.+16     	; 0x2460 <vfprintf+0xb4>
    2450:	8e 32       	cpi	r24, 0x2E	; 46
    2452:	b9 f4       	brne	.+46     	; 0x2482 <vfprintf+0xd6>
    2454:	36 fc       	sbrc	r3, 6
    2456:	81 c1       	rjmp	.+770    	; 0x275a <vfprintf+0x3ae>
    2458:	23 2d       	mov	r18, r3
    245a:	20 64       	ori	r18, 0x40	; 64
    245c:	32 2e       	mov	r3, r18
    245e:	19 c0       	rjmp	.+50     	; 0x2492 <vfprintf+0xe6>
    2460:	36 fe       	sbrs	r3, 6
    2462:	06 c0       	rjmp	.+12     	; 0x2470 <vfprintf+0xc4>
    2464:	8a e0       	ldi	r24, 0x0A	; 10
    2466:	98 9e       	mul	r9, r24
    2468:	20 0d       	add	r18, r0
    246a:	11 24       	eor	r1, r1
    246c:	92 2e       	mov	r9, r18
    246e:	11 c0       	rjmp	.+34     	; 0x2492 <vfprintf+0xe6>
    2470:	ea e0       	ldi	r30, 0x0A	; 10
    2472:	2e 9e       	mul	r2, r30
    2474:	20 0d       	add	r18, r0
    2476:	11 24       	eor	r1, r1
    2478:	22 2e       	mov	r2, r18
    247a:	f3 2d       	mov	r31, r3
    247c:	f0 62       	ori	r31, 0x20	; 32
    247e:	3f 2e       	mov	r3, r31
    2480:	08 c0       	rjmp	.+16     	; 0x2492 <vfprintf+0xe6>
    2482:	8c 36       	cpi	r24, 0x6C	; 108
    2484:	21 f4       	brne	.+8      	; 0x248e <vfprintf+0xe2>
    2486:	83 2d       	mov	r24, r3
    2488:	80 68       	ori	r24, 0x80	; 128
    248a:	38 2e       	mov	r3, r24
    248c:	02 c0       	rjmp	.+4      	; 0x2492 <vfprintf+0xe6>
    248e:	88 36       	cpi	r24, 0x68	; 104
    2490:	41 f4       	brne	.+16     	; 0x24a2 <vfprintf+0xf6>
    2492:	f7 01       	movw	r30, r14
    2494:	93 fd       	sbrc	r25, 3
    2496:	85 91       	lpm	r24, Z+
    2498:	93 ff       	sbrs	r25, 3
    249a:	81 91       	ld	r24, Z+
    249c:	7f 01       	movw	r14, r30
    249e:	81 11       	cpse	r24, r1
    24a0:	b3 cf       	rjmp	.-154    	; 0x2408 <vfprintf+0x5c>
    24a2:	98 2f       	mov	r25, r24
    24a4:	9f 7d       	andi	r25, 0xDF	; 223
    24a6:	95 54       	subi	r25, 0x45	; 69
    24a8:	93 30       	cpi	r25, 0x03	; 3
    24aa:	28 f4       	brcc	.+10     	; 0x24b6 <vfprintf+0x10a>
    24ac:	0c 5f       	subi	r16, 0xFC	; 252
    24ae:	1f 4f       	sbci	r17, 0xFF	; 255
    24b0:	9f e3       	ldi	r25, 0x3F	; 63
    24b2:	99 83       	std	Y+1, r25	; 0x01
    24b4:	0d c0       	rjmp	.+26     	; 0x24d0 <vfprintf+0x124>
    24b6:	83 36       	cpi	r24, 0x63	; 99
    24b8:	31 f0       	breq	.+12     	; 0x24c6 <vfprintf+0x11a>
    24ba:	83 37       	cpi	r24, 0x73	; 115
    24bc:	71 f0       	breq	.+28     	; 0x24da <vfprintf+0x12e>
    24be:	83 35       	cpi	r24, 0x53	; 83
    24c0:	09 f0       	breq	.+2      	; 0x24c4 <vfprintf+0x118>
    24c2:	59 c0       	rjmp	.+178    	; 0x2576 <vfprintf+0x1ca>
    24c4:	21 c0       	rjmp	.+66     	; 0x2508 <vfprintf+0x15c>
    24c6:	f8 01       	movw	r30, r16
    24c8:	80 81       	ld	r24, Z
    24ca:	89 83       	std	Y+1, r24	; 0x01
    24cc:	0e 5f       	subi	r16, 0xFE	; 254
    24ce:	1f 4f       	sbci	r17, 0xFF	; 255
    24d0:	88 24       	eor	r8, r8
    24d2:	83 94       	inc	r8
    24d4:	91 2c       	mov	r9, r1
    24d6:	53 01       	movw	r10, r6
    24d8:	13 c0       	rjmp	.+38     	; 0x2500 <vfprintf+0x154>
    24da:	28 01       	movw	r4, r16
    24dc:	f2 e0       	ldi	r31, 0x02	; 2
    24de:	4f 0e       	add	r4, r31
    24e0:	51 1c       	adc	r5, r1
    24e2:	f8 01       	movw	r30, r16
    24e4:	a0 80       	ld	r10, Z
    24e6:	b1 80       	ldd	r11, Z+1	; 0x01
    24e8:	36 fe       	sbrs	r3, 6
    24ea:	03 c0       	rjmp	.+6      	; 0x24f2 <vfprintf+0x146>
    24ec:	69 2d       	mov	r22, r9
    24ee:	70 e0       	ldi	r23, 0x00	; 0
    24f0:	02 c0       	rjmp	.+4      	; 0x24f6 <vfprintf+0x14a>
    24f2:	6f ef       	ldi	r22, 0xFF	; 255
    24f4:	7f ef       	ldi	r23, 0xFF	; 255
    24f6:	c5 01       	movw	r24, r10
    24f8:	0e 94 c2 13 	call	0x2784	; 0x2784 <strnlen>
    24fc:	4c 01       	movw	r8, r24
    24fe:	82 01       	movw	r16, r4
    2500:	f3 2d       	mov	r31, r3
    2502:	ff 77       	andi	r31, 0x7F	; 127
    2504:	3f 2e       	mov	r3, r31
    2506:	16 c0       	rjmp	.+44     	; 0x2534 <vfprintf+0x188>
    2508:	28 01       	movw	r4, r16
    250a:	22 e0       	ldi	r18, 0x02	; 2
    250c:	42 0e       	add	r4, r18
    250e:	51 1c       	adc	r5, r1
    2510:	f8 01       	movw	r30, r16
    2512:	a0 80       	ld	r10, Z
    2514:	b1 80       	ldd	r11, Z+1	; 0x01
    2516:	36 fe       	sbrs	r3, 6
    2518:	03 c0       	rjmp	.+6      	; 0x2520 <vfprintf+0x174>
    251a:	69 2d       	mov	r22, r9
    251c:	70 e0       	ldi	r23, 0x00	; 0
    251e:	02 c0       	rjmp	.+4      	; 0x2524 <vfprintf+0x178>
    2520:	6f ef       	ldi	r22, 0xFF	; 255
    2522:	7f ef       	ldi	r23, 0xFF	; 255
    2524:	c5 01       	movw	r24, r10
    2526:	0e 94 b7 13 	call	0x276e	; 0x276e <strnlen_P>
    252a:	4c 01       	movw	r8, r24
    252c:	f3 2d       	mov	r31, r3
    252e:	f0 68       	ori	r31, 0x80	; 128
    2530:	3f 2e       	mov	r3, r31
    2532:	82 01       	movw	r16, r4
    2534:	33 fc       	sbrc	r3, 3
    2536:	1b c0       	rjmp	.+54     	; 0x256e <vfprintf+0x1c2>
    2538:	82 2d       	mov	r24, r2
    253a:	90 e0       	ldi	r25, 0x00	; 0
    253c:	88 16       	cp	r8, r24
    253e:	99 06       	cpc	r9, r25
    2540:	b0 f4       	brcc	.+44     	; 0x256e <vfprintf+0x1c2>
    2542:	b6 01       	movw	r22, r12
    2544:	80 e2       	ldi	r24, 0x20	; 32
    2546:	90 e0       	ldi	r25, 0x00	; 0
    2548:	0e 94 dd 13 	call	0x27ba	; 0x27ba <fputc>
    254c:	2a 94       	dec	r2
    254e:	f4 cf       	rjmp	.-24     	; 0x2538 <vfprintf+0x18c>
    2550:	f5 01       	movw	r30, r10
    2552:	37 fc       	sbrc	r3, 7
    2554:	85 91       	lpm	r24, Z+
    2556:	37 fe       	sbrs	r3, 7
    2558:	81 91       	ld	r24, Z+
    255a:	5f 01       	movw	r10, r30
    255c:	b6 01       	movw	r22, r12
    255e:	90 e0       	ldi	r25, 0x00	; 0
    2560:	0e 94 dd 13 	call	0x27ba	; 0x27ba <fputc>
    2564:	21 10       	cpse	r2, r1
    2566:	2a 94       	dec	r2
    2568:	21 e0       	ldi	r18, 0x01	; 1
    256a:	82 1a       	sub	r8, r18
    256c:	91 08       	sbc	r9, r1
    256e:	81 14       	cp	r8, r1
    2570:	91 04       	cpc	r9, r1
    2572:	71 f7       	brne	.-36     	; 0x2550 <vfprintf+0x1a4>
    2574:	e8 c0       	rjmp	.+464    	; 0x2746 <vfprintf+0x39a>
    2576:	84 36       	cpi	r24, 0x64	; 100
    2578:	11 f0       	breq	.+4      	; 0x257e <vfprintf+0x1d2>
    257a:	89 36       	cpi	r24, 0x69	; 105
    257c:	41 f5       	brne	.+80     	; 0x25ce <vfprintf+0x222>
    257e:	f8 01       	movw	r30, r16
    2580:	37 fe       	sbrs	r3, 7
    2582:	07 c0       	rjmp	.+14     	; 0x2592 <vfprintf+0x1e6>
    2584:	60 81       	ld	r22, Z
    2586:	71 81       	ldd	r23, Z+1	; 0x01
    2588:	82 81       	ldd	r24, Z+2	; 0x02
    258a:	93 81       	ldd	r25, Z+3	; 0x03
    258c:	0c 5f       	subi	r16, 0xFC	; 252
    258e:	1f 4f       	sbci	r17, 0xFF	; 255
    2590:	08 c0       	rjmp	.+16     	; 0x25a2 <vfprintf+0x1f6>
    2592:	60 81       	ld	r22, Z
    2594:	71 81       	ldd	r23, Z+1	; 0x01
    2596:	07 2e       	mov	r0, r23
    2598:	00 0c       	add	r0, r0
    259a:	88 0b       	sbc	r24, r24
    259c:	99 0b       	sbc	r25, r25
    259e:	0e 5f       	subi	r16, 0xFE	; 254
    25a0:	1f 4f       	sbci	r17, 0xFF	; 255
    25a2:	f3 2d       	mov	r31, r3
    25a4:	ff 76       	andi	r31, 0x6F	; 111
    25a6:	3f 2e       	mov	r3, r31
    25a8:	97 ff       	sbrs	r25, 7
    25aa:	09 c0       	rjmp	.+18     	; 0x25be <vfprintf+0x212>
    25ac:	90 95       	com	r25
    25ae:	80 95       	com	r24
    25b0:	70 95       	com	r23
    25b2:	61 95       	neg	r22
    25b4:	7f 4f       	sbci	r23, 0xFF	; 255
    25b6:	8f 4f       	sbci	r24, 0xFF	; 255
    25b8:	9f 4f       	sbci	r25, 0xFF	; 255
    25ba:	f0 68       	ori	r31, 0x80	; 128
    25bc:	3f 2e       	mov	r3, r31
    25be:	2a e0       	ldi	r18, 0x0A	; 10
    25c0:	30 e0       	ldi	r19, 0x00	; 0
    25c2:	a3 01       	movw	r20, r6
    25c4:	0e 94 19 14 	call	0x2832	; 0x2832 <__ultoa_invert>
    25c8:	88 2e       	mov	r8, r24
    25ca:	86 18       	sub	r8, r6
    25cc:	45 c0       	rjmp	.+138    	; 0x2658 <vfprintf+0x2ac>
    25ce:	85 37       	cpi	r24, 0x75	; 117
    25d0:	31 f4       	brne	.+12     	; 0x25de <vfprintf+0x232>
    25d2:	23 2d       	mov	r18, r3
    25d4:	2f 7e       	andi	r18, 0xEF	; 239
    25d6:	b2 2e       	mov	r11, r18
    25d8:	2a e0       	ldi	r18, 0x0A	; 10
    25da:	30 e0       	ldi	r19, 0x00	; 0
    25dc:	25 c0       	rjmp	.+74     	; 0x2628 <vfprintf+0x27c>
    25de:	93 2d       	mov	r25, r3
    25e0:	99 7f       	andi	r25, 0xF9	; 249
    25e2:	b9 2e       	mov	r11, r25
    25e4:	8f 36       	cpi	r24, 0x6F	; 111
    25e6:	c1 f0       	breq	.+48     	; 0x2618 <vfprintf+0x26c>
    25e8:	18 f4       	brcc	.+6      	; 0x25f0 <vfprintf+0x244>
    25ea:	88 35       	cpi	r24, 0x58	; 88
    25ec:	79 f0       	breq	.+30     	; 0x260c <vfprintf+0x260>
    25ee:	b5 c0       	rjmp	.+362    	; 0x275a <vfprintf+0x3ae>
    25f0:	80 37       	cpi	r24, 0x70	; 112
    25f2:	19 f0       	breq	.+6      	; 0x25fa <vfprintf+0x24e>
    25f4:	88 37       	cpi	r24, 0x78	; 120
    25f6:	21 f0       	breq	.+8      	; 0x2600 <vfprintf+0x254>
    25f8:	b0 c0       	rjmp	.+352    	; 0x275a <vfprintf+0x3ae>
    25fa:	e9 2f       	mov	r30, r25
    25fc:	e0 61       	ori	r30, 0x10	; 16
    25fe:	be 2e       	mov	r11, r30
    2600:	b4 fe       	sbrs	r11, 4
    2602:	0d c0       	rjmp	.+26     	; 0x261e <vfprintf+0x272>
    2604:	fb 2d       	mov	r31, r11
    2606:	f4 60       	ori	r31, 0x04	; 4
    2608:	bf 2e       	mov	r11, r31
    260a:	09 c0       	rjmp	.+18     	; 0x261e <vfprintf+0x272>
    260c:	34 fe       	sbrs	r3, 4
    260e:	0a c0       	rjmp	.+20     	; 0x2624 <vfprintf+0x278>
    2610:	29 2f       	mov	r18, r25
    2612:	26 60       	ori	r18, 0x06	; 6
    2614:	b2 2e       	mov	r11, r18
    2616:	06 c0       	rjmp	.+12     	; 0x2624 <vfprintf+0x278>
    2618:	28 e0       	ldi	r18, 0x08	; 8
    261a:	30 e0       	ldi	r19, 0x00	; 0
    261c:	05 c0       	rjmp	.+10     	; 0x2628 <vfprintf+0x27c>
    261e:	20 e1       	ldi	r18, 0x10	; 16
    2620:	30 e0       	ldi	r19, 0x00	; 0
    2622:	02 c0       	rjmp	.+4      	; 0x2628 <vfprintf+0x27c>
    2624:	20 e1       	ldi	r18, 0x10	; 16
    2626:	32 e0       	ldi	r19, 0x02	; 2
    2628:	f8 01       	movw	r30, r16
    262a:	b7 fe       	sbrs	r11, 7
    262c:	07 c0       	rjmp	.+14     	; 0x263c <vfprintf+0x290>
    262e:	60 81       	ld	r22, Z
    2630:	71 81       	ldd	r23, Z+1	; 0x01
    2632:	82 81       	ldd	r24, Z+2	; 0x02
    2634:	93 81       	ldd	r25, Z+3	; 0x03
    2636:	0c 5f       	subi	r16, 0xFC	; 252
    2638:	1f 4f       	sbci	r17, 0xFF	; 255
    263a:	06 c0       	rjmp	.+12     	; 0x2648 <vfprintf+0x29c>
    263c:	60 81       	ld	r22, Z
    263e:	71 81       	ldd	r23, Z+1	; 0x01
    2640:	80 e0       	ldi	r24, 0x00	; 0
    2642:	90 e0       	ldi	r25, 0x00	; 0
    2644:	0e 5f       	subi	r16, 0xFE	; 254
    2646:	1f 4f       	sbci	r17, 0xFF	; 255
    2648:	a3 01       	movw	r20, r6
    264a:	0e 94 19 14 	call	0x2832	; 0x2832 <__ultoa_invert>
    264e:	88 2e       	mov	r8, r24
    2650:	86 18       	sub	r8, r6
    2652:	fb 2d       	mov	r31, r11
    2654:	ff 77       	andi	r31, 0x7F	; 127
    2656:	3f 2e       	mov	r3, r31
    2658:	36 fe       	sbrs	r3, 6
    265a:	0d c0       	rjmp	.+26     	; 0x2676 <vfprintf+0x2ca>
    265c:	23 2d       	mov	r18, r3
    265e:	2e 7f       	andi	r18, 0xFE	; 254
    2660:	a2 2e       	mov	r10, r18
    2662:	89 14       	cp	r8, r9
    2664:	58 f4       	brcc	.+22     	; 0x267c <vfprintf+0x2d0>
    2666:	34 fe       	sbrs	r3, 4
    2668:	0b c0       	rjmp	.+22     	; 0x2680 <vfprintf+0x2d4>
    266a:	32 fc       	sbrc	r3, 2
    266c:	09 c0       	rjmp	.+18     	; 0x2680 <vfprintf+0x2d4>
    266e:	83 2d       	mov	r24, r3
    2670:	8e 7e       	andi	r24, 0xEE	; 238
    2672:	a8 2e       	mov	r10, r24
    2674:	05 c0       	rjmp	.+10     	; 0x2680 <vfprintf+0x2d4>
    2676:	b8 2c       	mov	r11, r8
    2678:	a3 2c       	mov	r10, r3
    267a:	03 c0       	rjmp	.+6      	; 0x2682 <vfprintf+0x2d6>
    267c:	b8 2c       	mov	r11, r8
    267e:	01 c0       	rjmp	.+2      	; 0x2682 <vfprintf+0x2d6>
    2680:	b9 2c       	mov	r11, r9
    2682:	a4 fe       	sbrs	r10, 4
    2684:	0f c0       	rjmp	.+30     	; 0x26a4 <vfprintf+0x2f8>
    2686:	fe 01       	movw	r30, r28
    2688:	e8 0d       	add	r30, r8
    268a:	f1 1d       	adc	r31, r1
    268c:	80 81       	ld	r24, Z
    268e:	80 33       	cpi	r24, 0x30	; 48
    2690:	21 f4       	brne	.+8      	; 0x269a <vfprintf+0x2ee>
    2692:	9a 2d       	mov	r25, r10
    2694:	99 7e       	andi	r25, 0xE9	; 233
    2696:	a9 2e       	mov	r10, r25
    2698:	09 c0       	rjmp	.+18     	; 0x26ac <vfprintf+0x300>
    269a:	a2 fe       	sbrs	r10, 2
    269c:	06 c0       	rjmp	.+12     	; 0x26aa <vfprintf+0x2fe>
    269e:	b3 94       	inc	r11
    26a0:	b3 94       	inc	r11
    26a2:	04 c0       	rjmp	.+8      	; 0x26ac <vfprintf+0x300>
    26a4:	8a 2d       	mov	r24, r10
    26a6:	86 78       	andi	r24, 0x86	; 134
    26a8:	09 f0       	breq	.+2      	; 0x26ac <vfprintf+0x300>
    26aa:	b3 94       	inc	r11
    26ac:	a3 fc       	sbrc	r10, 3
    26ae:	11 c0       	rjmp	.+34     	; 0x26d2 <vfprintf+0x326>
    26b0:	a0 fe       	sbrs	r10, 0
    26b2:	06 c0       	rjmp	.+12     	; 0x26c0 <vfprintf+0x314>
    26b4:	b2 14       	cp	r11, r2
    26b6:	88 f4       	brcc	.+34     	; 0x26da <vfprintf+0x32e>
    26b8:	28 0c       	add	r2, r8
    26ba:	92 2c       	mov	r9, r2
    26bc:	9b 18       	sub	r9, r11
    26be:	0e c0       	rjmp	.+28     	; 0x26dc <vfprintf+0x330>
    26c0:	b2 14       	cp	r11, r2
    26c2:	60 f4       	brcc	.+24     	; 0x26dc <vfprintf+0x330>
    26c4:	b6 01       	movw	r22, r12
    26c6:	80 e2       	ldi	r24, 0x20	; 32
    26c8:	90 e0       	ldi	r25, 0x00	; 0
    26ca:	0e 94 dd 13 	call	0x27ba	; 0x27ba <fputc>
    26ce:	b3 94       	inc	r11
    26d0:	f7 cf       	rjmp	.-18     	; 0x26c0 <vfprintf+0x314>
    26d2:	b2 14       	cp	r11, r2
    26d4:	18 f4       	brcc	.+6      	; 0x26dc <vfprintf+0x330>
    26d6:	2b 18       	sub	r2, r11
    26d8:	02 c0       	rjmp	.+4      	; 0x26de <vfprintf+0x332>
    26da:	98 2c       	mov	r9, r8
    26dc:	21 2c       	mov	r2, r1
    26de:	a4 fe       	sbrs	r10, 4
    26e0:	10 c0       	rjmp	.+32     	; 0x2702 <vfprintf+0x356>
    26e2:	b6 01       	movw	r22, r12
    26e4:	80 e3       	ldi	r24, 0x30	; 48
    26e6:	90 e0       	ldi	r25, 0x00	; 0
    26e8:	0e 94 dd 13 	call	0x27ba	; 0x27ba <fputc>
    26ec:	a2 fe       	sbrs	r10, 2
    26ee:	17 c0       	rjmp	.+46     	; 0x271e <vfprintf+0x372>
    26f0:	a1 fc       	sbrc	r10, 1
    26f2:	03 c0       	rjmp	.+6      	; 0x26fa <vfprintf+0x34e>
    26f4:	88 e7       	ldi	r24, 0x78	; 120
    26f6:	90 e0       	ldi	r25, 0x00	; 0
    26f8:	02 c0       	rjmp	.+4      	; 0x26fe <vfprintf+0x352>
    26fa:	88 e5       	ldi	r24, 0x58	; 88
    26fc:	90 e0       	ldi	r25, 0x00	; 0
    26fe:	b6 01       	movw	r22, r12
    2700:	0c c0       	rjmp	.+24     	; 0x271a <vfprintf+0x36e>
    2702:	8a 2d       	mov	r24, r10
    2704:	86 78       	andi	r24, 0x86	; 134
    2706:	59 f0       	breq	.+22     	; 0x271e <vfprintf+0x372>
    2708:	a1 fe       	sbrs	r10, 1
    270a:	02 c0       	rjmp	.+4      	; 0x2710 <vfprintf+0x364>
    270c:	8b e2       	ldi	r24, 0x2B	; 43
    270e:	01 c0       	rjmp	.+2      	; 0x2712 <vfprintf+0x366>
    2710:	80 e2       	ldi	r24, 0x20	; 32
    2712:	a7 fc       	sbrc	r10, 7
    2714:	8d e2       	ldi	r24, 0x2D	; 45
    2716:	b6 01       	movw	r22, r12
    2718:	90 e0       	ldi	r25, 0x00	; 0
    271a:	0e 94 dd 13 	call	0x27ba	; 0x27ba <fputc>
    271e:	89 14       	cp	r8, r9
    2720:	38 f4       	brcc	.+14     	; 0x2730 <vfprintf+0x384>
    2722:	b6 01       	movw	r22, r12
    2724:	80 e3       	ldi	r24, 0x30	; 48
    2726:	90 e0       	ldi	r25, 0x00	; 0
    2728:	0e 94 dd 13 	call	0x27ba	; 0x27ba <fputc>
    272c:	9a 94       	dec	r9
    272e:	f7 cf       	rjmp	.-18     	; 0x271e <vfprintf+0x372>
    2730:	8a 94       	dec	r8
    2732:	f3 01       	movw	r30, r6
    2734:	e8 0d       	add	r30, r8
    2736:	f1 1d       	adc	r31, r1
    2738:	80 81       	ld	r24, Z
    273a:	b6 01       	movw	r22, r12
    273c:	90 e0       	ldi	r25, 0x00	; 0
    273e:	0e 94 dd 13 	call	0x27ba	; 0x27ba <fputc>
    2742:	81 10       	cpse	r8, r1
    2744:	f5 cf       	rjmp	.-22     	; 0x2730 <vfprintf+0x384>
    2746:	22 20       	and	r2, r2
    2748:	09 f4       	brne	.+2      	; 0x274c <vfprintf+0x3a0>
    274a:	42 ce       	rjmp	.-892    	; 0x23d0 <vfprintf+0x24>
    274c:	b6 01       	movw	r22, r12
    274e:	80 e2       	ldi	r24, 0x20	; 32
    2750:	90 e0       	ldi	r25, 0x00	; 0
    2752:	0e 94 dd 13 	call	0x27ba	; 0x27ba <fputc>
    2756:	2a 94       	dec	r2
    2758:	f6 cf       	rjmp	.-20     	; 0x2746 <vfprintf+0x39a>
    275a:	f6 01       	movw	r30, r12
    275c:	86 81       	ldd	r24, Z+6	; 0x06
    275e:	97 81       	ldd	r25, Z+7	; 0x07
    2760:	02 c0       	rjmp	.+4      	; 0x2766 <vfprintf+0x3ba>
    2762:	8f ef       	ldi	r24, 0xFF	; 255
    2764:	9f ef       	ldi	r25, 0xFF	; 255
    2766:	2b 96       	adiw	r28, 0x0b	; 11
    2768:	e2 e1       	ldi	r30, 0x12	; 18
    276a:	0c 94 ad 14 	jmp	0x295a	; 0x295a <__epilogue_restores__>

0000276e <strnlen_P>:
    276e:	fc 01       	movw	r30, r24
    2770:	05 90       	lpm	r0, Z+
    2772:	61 50       	subi	r22, 0x01	; 1
    2774:	70 40       	sbci	r23, 0x00	; 0
    2776:	01 10       	cpse	r0, r1
    2778:	d8 f7       	brcc	.-10     	; 0x2770 <strnlen_P+0x2>
    277a:	80 95       	com	r24
    277c:	90 95       	com	r25
    277e:	8e 0f       	add	r24, r30
    2780:	9f 1f       	adc	r25, r31
    2782:	08 95       	ret

00002784 <strnlen>:
    2784:	fc 01       	movw	r30, r24
    2786:	61 50       	subi	r22, 0x01	; 1
    2788:	70 40       	sbci	r23, 0x00	; 0
    278a:	01 90       	ld	r0, Z+
    278c:	01 10       	cpse	r0, r1
    278e:	d8 f7       	brcc	.-10     	; 0x2786 <strnlen+0x2>
    2790:	80 95       	com	r24
    2792:	90 95       	com	r25
    2794:	8e 0f       	add	r24, r30
    2796:	9f 1f       	adc	r25, r31
    2798:	08 95       	ret

0000279a <strrev>:
    279a:	dc 01       	movw	r26, r24
    279c:	fc 01       	movw	r30, r24
    279e:	67 2f       	mov	r22, r23
    27a0:	71 91       	ld	r23, Z+
    27a2:	77 23       	and	r23, r23
    27a4:	e1 f7       	brne	.-8      	; 0x279e <strrev+0x4>
    27a6:	32 97       	sbiw	r30, 0x02	; 2
    27a8:	04 c0       	rjmp	.+8      	; 0x27b2 <strrev+0x18>
    27aa:	7c 91       	ld	r23, X
    27ac:	6d 93       	st	X+, r22
    27ae:	70 83       	st	Z, r23
    27b0:	62 91       	ld	r22, -Z
    27b2:	ae 17       	cp	r26, r30
    27b4:	bf 07       	cpc	r27, r31
    27b6:	c8 f3       	brcs	.-14     	; 0x27aa <strrev+0x10>
    27b8:	08 95       	ret

000027ba <fputc>:
    27ba:	0f 93       	push	r16
    27bc:	1f 93       	push	r17
    27be:	cf 93       	push	r28
    27c0:	df 93       	push	r29
    27c2:	fb 01       	movw	r30, r22
    27c4:	23 81       	ldd	r18, Z+3	; 0x03
    27c6:	21 fd       	sbrc	r18, 1
    27c8:	03 c0       	rjmp	.+6      	; 0x27d0 <fputc+0x16>
    27ca:	8f ef       	ldi	r24, 0xFF	; 255
    27cc:	9f ef       	ldi	r25, 0xFF	; 255
    27ce:	2c c0       	rjmp	.+88     	; 0x2828 <fputc+0x6e>
    27d0:	22 ff       	sbrs	r18, 2
    27d2:	16 c0       	rjmp	.+44     	; 0x2800 <fputc+0x46>
    27d4:	46 81       	ldd	r20, Z+6	; 0x06
    27d6:	57 81       	ldd	r21, Z+7	; 0x07
    27d8:	24 81       	ldd	r18, Z+4	; 0x04
    27da:	35 81       	ldd	r19, Z+5	; 0x05
    27dc:	42 17       	cp	r20, r18
    27de:	53 07       	cpc	r21, r19
    27e0:	44 f4       	brge	.+16     	; 0x27f2 <fputc+0x38>
    27e2:	a0 81       	ld	r26, Z
    27e4:	b1 81       	ldd	r27, Z+1	; 0x01
    27e6:	9d 01       	movw	r18, r26
    27e8:	2f 5f       	subi	r18, 0xFF	; 255
    27ea:	3f 4f       	sbci	r19, 0xFF	; 255
    27ec:	31 83       	std	Z+1, r19	; 0x01
    27ee:	20 83       	st	Z, r18
    27f0:	8c 93       	st	X, r24
    27f2:	26 81       	ldd	r18, Z+6	; 0x06
    27f4:	37 81       	ldd	r19, Z+7	; 0x07
    27f6:	2f 5f       	subi	r18, 0xFF	; 255
    27f8:	3f 4f       	sbci	r19, 0xFF	; 255
    27fa:	37 83       	std	Z+7, r19	; 0x07
    27fc:	26 83       	std	Z+6, r18	; 0x06
    27fe:	14 c0       	rjmp	.+40     	; 0x2828 <fputc+0x6e>
    2800:	8b 01       	movw	r16, r22
    2802:	ec 01       	movw	r28, r24
    2804:	fb 01       	movw	r30, r22
    2806:	00 84       	ldd	r0, Z+8	; 0x08
    2808:	f1 85       	ldd	r31, Z+9	; 0x09
    280a:	e0 2d       	mov	r30, r0
    280c:	09 95       	icall
    280e:	89 2b       	or	r24, r25
    2810:	e1 f6       	brne	.-72     	; 0x27ca <fputc+0x10>
    2812:	d8 01       	movw	r26, r16
    2814:	16 96       	adiw	r26, 0x06	; 6
    2816:	8d 91       	ld	r24, X+
    2818:	9c 91       	ld	r25, X
    281a:	17 97       	sbiw	r26, 0x07	; 7
    281c:	01 96       	adiw	r24, 0x01	; 1
    281e:	17 96       	adiw	r26, 0x07	; 7
    2820:	9c 93       	st	X, r25
    2822:	8e 93       	st	-X, r24
    2824:	16 97       	sbiw	r26, 0x06	; 6
    2826:	ce 01       	movw	r24, r28
    2828:	df 91       	pop	r29
    282a:	cf 91       	pop	r28
    282c:	1f 91       	pop	r17
    282e:	0f 91       	pop	r16
    2830:	08 95       	ret

00002832 <__ultoa_invert>:
    2832:	fa 01       	movw	r30, r20
    2834:	aa 27       	eor	r26, r26
    2836:	28 30       	cpi	r18, 0x08	; 8
    2838:	51 f1       	breq	.+84     	; 0x288e <__ultoa_invert+0x5c>
    283a:	20 31       	cpi	r18, 0x10	; 16
    283c:	81 f1       	breq	.+96     	; 0x289e <__ultoa_invert+0x6c>
    283e:	e8 94       	clt
    2840:	6f 93       	push	r22
    2842:	6e 7f       	andi	r22, 0xFE	; 254
    2844:	6e 5f       	subi	r22, 0xFE	; 254
    2846:	7f 4f       	sbci	r23, 0xFF	; 255
    2848:	8f 4f       	sbci	r24, 0xFF	; 255
    284a:	9f 4f       	sbci	r25, 0xFF	; 255
    284c:	af 4f       	sbci	r26, 0xFF	; 255
    284e:	b1 e0       	ldi	r27, 0x01	; 1
    2850:	3e d0       	rcall	.+124    	; 0x28ce <__ultoa_invert+0x9c>
    2852:	b4 e0       	ldi	r27, 0x04	; 4
    2854:	3c d0       	rcall	.+120    	; 0x28ce <__ultoa_invert+0x9c>
    2856:	67 0f       	add	r22, r23
    2858:	78 1f       	adc	r23, r24
    285a:	89 1f       	adc	r24, r25
    285c:	9a 1f       	adc	r25, r26
    285e:	a1 1d       	adc	r26, r1
    2860:	68 0f       	add	r22, r24
    2862:	79 1f       	adc	r23, r25
    2864:	8a 1f       	adc	r24, r26
    2866:	91 1d       	adc	r25, r1
    2868:	a1 1d       	adc	r26, r1
    286a:	6a 0f       	add	r22, r26
    286c:	71 1d       	adc	r23, r1
    286e:	81 1d       	adc	r24, r1
    2870:	91 1d       	adc	r25, r1
    2872:	a1 1d       	adc	r26, r1
    2874:	20 d0       	rcall	.+64     	; 0x28b6 <__ultoa_invert+0x84>
    2876:	09 f4       	brne	.+2      	; 0x287a <__ultoa_invert+0x48>
    2878:	68 94       	set
    287a:	3f 91       	pop	r19
    287c:	2a e0       	ldi	r18, 0x0A	; 10
    287e:	26 9f       	mul	r18, r22
    2880:	11 24       	eor	r1, r1
    2882:	30 19       	sub	r19, r0
    2884:	30 5d       	subi	r19, 0xD0	; 208
    2886:	31 93       	st	Z+, r19
    2888:	de f6       	brtc	.-74     	; 0x2840 <__ultoa_invert+0xe>
    288a:	cf 01       	movw	r24, r30
    288c:	08 95       	ret
    288e:	46 2f       	mov	r20, r22
    2890:	47 70       	andi	r20, 0x07	; 7
    2892:	40 5d       	subi	r20, 0xD0	; 208
    2894:	41 93       	st	Z+, r20
    2896:	b3 e0       	ldi	r27, 0x03	; 3
    2898:	0f d0       	rcall	.+30     	; 0x28b8 <__ultoa_invert+0x86>
    289a:	c9 f7       	brne	.-14     	; 0x288e <__ultoa_invert+0x5c>
    289c:	f6 cf       	rjmp	.-20     	; 0x288a <__ultoa_invert+0x58>
    289e:	46 2f       	mov	r20, r22
    28a0:	4f 70       	andi	r20, 0x0F	; 15
    28a2:	40 5d       	subi	r20, 0xD0	; 208
    28a4:	4a 33       	cpi	r20, 0x3A	; 58
    28a6:	18 f0       	brcs	.+6      	; 0x28ae <__ultoa_invert+0x7c>
    28a8:	49 5d       	subi	r20, 0xD9	; 217
    28aa:	31 fd       	sbrc	r19, 1
    28ac:	40 52       	subi	r20, 0x20	; 32
    28ae:	41 93       	st	Z+, r20
    28b0:	02 d0       	rcall	.+4      	; 0x28b6 <__ultoa_invert+0x84>
    28b2:	a9 f7       	brne	.-22     	; 0x289e <__ultoa_invert+0x6c>
    28b4:	ea cf       	rjmp	.-44     	; 0x288a <__ultoa_invert+0x58>
    28b6:	b4 e0       	ldi	r27, 0x04	; 4
    28b8:	a6 95       	lsr	r26
    28ba:	97 95       	ror	r25
    28bc:	87 95       	ror	r24
    28be:	77 95       	ror	r23
    28c0:	67 95       	ror	r22
    28c2:	ba 95       	dec	r27
    28c4:	c9 f7       	brne	.-14     	; 0x28b8 <__ultoa_invert+0x86>
    28c6:	00 97       	sbiw	r24, 0x00	; 0
    28c8:	61 05       	cpc	r22, r1
    28ca:	71 05       	cpc	r23, r1
    28cc:	08 95       	ret
    28ce:	9b 01       	movw	r18, r22
    28d0:	ac 01       	movw	r20, r24
    28d2:	0a 2e       	mov	r0, r26
    28d4:	06 94       	lsr	r0
    28d6:	57 95       	ror	r21
    28d8:	47 95       	ror	r20
    28da:	37 95       	ror	r19
    28dc:	27 95       	ror	r18
    28de:	ba 95       	dec	r27
    28e0:	c9 f7       	brne	.-14     	; 0x28d4 <__ultoa_invert+0xa2>
    28e2:	62 0f       	add	r22, r18
    28e4:	73 1f       	adc	r23, r19
    28e6:	84 1f       	adc	r24, r20
    28e8:	95 1f       	adc	r25, r21
    28ea:	a0 1d       	adc	r26, r0
    28ec:	08 95       	ret

000028ee <eeprom_read_byte>:
    28ee:	f9 99       	sbic	0x1f, 1	; 31
    28f0:	fe cf       	rjmp	.-4      	; 0x28ee <eeprom_read_byte>
    28f2:	92 bd       	out	0x22, r25	; 34
    28f4:	81 bd       	out	0x21, r24	; 33
    28f6:	f8 9a       	sbi	0x1f, 0	; 31
    28f8:	99 27       	eor	r25, r25
    28fa:	80 b5       	in	r24, 0x20	; 32
    28fc:	08 95       	ret

000028fe <eeprom_update_byte>:
    28fe:	26 2f       	mov	r18, r22

00002900 <eeprom_update_r18>:
    2900:	f9 99       	sbic	0x1f, 1	; 31
    2902:	fe cf       	rjmp	.-4      	; 0x2900 <eeprom_update_r18>
    2904:	92 bd       	out	0x22, r25	; 34
    2906:	81 bd       	out	0x21, r24	; 33
    2908:	f8 9a       	sbi	0x1f, 0	; 31
    290a:	01 97       	sbiw	r24, 0x01	; 1
    290c:	00 b4       	in	r0, 0x20	; 32
    290e:	02 16       	cp	r0, r18
    2910:	39 f0       	breq	.+14     	; 0x2920 <eeprom_update_r18+0x20>
    2912:	1f ba       	out	0x1f, r1	; 31
    2914:	20 bd       	out	0x20, r18	; 32
    2916:	0f b6       	in	r0, 0x3f	; 63
    2918:	f8 94       	cli
    291a:	fa 9a       	sbi	0x1f, 2	; 31
    291c:	f9 9a       	sbi	0x1f, 1	; 31
    291e:	0f be       	out	0x3f, r0	; 63
    2920:	08 95       	ret

00002922 <__prologue_saves__>:
    2922:	2f 92       	push	r2
    2924:	3f 92       	push	r3
    2926:	4f 92       	push	r4
    2928:	5f 92       	push	r5
    292a:	6f 92       	push	r6
    292c:	7f 92       	push	r7
    292e:	8f 92       	push	r8
    2930:	9f 92       	push	r9
    2932:	af 92       	push	r10
    2934:	bf 92       	push	r11
    2936:	cf 92       	push	r12
    2938:	df 92       	push	r13
    293a:	ef 92       	push	r14
    293c:	ff 92       	push	r15
    293e:	0f 93       	push	r16
    2940:	1f 93       	push	r17
    2942:	cf 93       	push	r28
    2944:	df 93       	push	r29
    2946:	cd b7       	in	r28, 0x3d	; 61
    2948:	de b7       	in	r29, 0x3e	; 62
    294a:	ca 1b       	sub	r28, r26
    294c:	db 0b       	sbc	r29, r27
    294e:	0f b6       	in	r0, 0x3f	; 63
    2950:	f8 94       	cli
    2952:	de bf       	out	0x3e, r29	; 62
    2954:	0f be       	out	0x3f, r0	; 63
    2956:	cd bf       	out	0x3d, r28	; 61
    2958:	09 94       	ijmp

0000295a <__epilogue_restores__>:
    295a:	2a 88       	ldd	r2, Y+18	; 0x12
    295c:	39 88       	ldd	r3, Y+17	; 0x11
    295e:	48 88       	ldd	r4, Y+16	; 0x10
    2960:	5f 84       	ldd	r5, Y+15	; 0x0f
    2962:	6e 84       	ldd	r6, Y+14	; 0x0e
    2964:	7d 84       	ldd	r7, Y+13	; 0x0d
    2966:	8c 84       	ldd	r8, Y+12	; 0x0c
    2968:	9b 84       	ldd	r9, Y+11	; 0x0b
    296a:	aa 84       	ldd	r10, Y+10	; 0x0a
    296c:	b9 84       	ldd	r11, Y+9	; 0x09
    296e:	c8 84       	ldd	r12, Y+8	; 0x08
    2970:	df 80       	ldd	r13, Y+7	; 0x07
    2972:	ee 80       	ldd	r14, Y+6	; 0x06
    2974:	fd 80       	ldd	r15, Y+5	; 0x05
    2976:	0c 81       	ldd	r16, Y+4	; 0x04
    2978:	1b 81       	ldd	r17, Y+3	; 0x03
    297a:	aa 81       	ldd	r26, Y+2	; 0x02
    297c:	b9 81       	ldd	r27, Y+1	; 0x01
    297e:	ce 0f       	add	r28, r30
    2980:	d1 1d       	adc	r29, r1
    2982:	0f b6       	in	r0, 0x3f	; 63
    2984:	f8 94       	cli
    2986:	de bf       	out	0x3e, r29	; 62
    2988:	0f be       	out	0x3f, r0	; 63
    298a:	cd bf       	out	0x3d, r28	; 61
    298c:	ed 01       	movw	r28, r26
    298e:	08 95       	ret

00002990 <_exit>:
    2990:	f8 94       	cli

00002992 <__stop_program>:
    2992:	ff cf       	rjmp	.-2      	; 0x2992 <__stop_program>
